ccopy_reg
_reconstructor
p0
(cdigits.model.images.generic.job
GenericImageModelJob
p1
c__builtin__
object
p2
Ntp3
Rp4
(dp5
S'_notes'
p6
NsS'exception'
p7
NsS'tasks'
p8
(lp9
g0
(cdigits.model.tasks.caffe_train
CaffeTrainTask
p10
g2
Ntp11
Rp12
(dp13
S'shuffle'
p14
NsS'snapshot_interval'
p15
F1.0
sS'train_outputs'
p16
ccollections
OrderedDict
p17
((lp18
(lp19
S'epoch'
p20
ag0
(cdigits.model.tasks.train
NetworkOutput
p21
c__builtin__
tuple
p22
(S'Epoch'
p23
(lp24
I0
aF0.003971227334032669
aF0.007942454668065337
aF0.011913682002098008
aF0.015884909336130675
aF0.019856136670163345
aF0.023827364004196015
aF0.027798591338228682
aF0.03176981867226135
aF0.03574104600629402
aF0.03971227334032669
aF0.04368350067435936
aF0.04765472800839203
aF0.051625955342424694
aF0.055597182676457364
aF0.059568410010490035
aF0.0635396373445227
aF0.06751086467855537
aF0.07148209201258804
aF0.07545331934662071
aF0.07942454668065338
aF0.08339577401468605
aF0.08736700134871872
aF0.09133822868275139
aF0.09530945601678406
aF0.09928068335081672
aF0.10325191068484939
aF0.10722313801888206
aF0.11119436535291473
aF0.1151655926869474
aF0.11913682002098007
aF0.12310804735501274
aF0.1270792746890454
aF0.13105050202307808
aF0.13502172935711074
aF0.13899295669114342
aF0.14296418402517608
aF0.14693541135920876
aF0.15090663869324142
aF0.1548778660272741
aF0.15884909336130676
aF0.16282032069533942
aF0.1667915480293721
aF0.17076277536340476
aF0.17473400269743744
aF0.1787052300314701
aF0.18267645736550278
aF0.18664768469953544
aF0.19061891203356812
aF0.19459013936760078
aF0.19856136670163343
aF0.20253259403566612
aF0.20650382136969878
aF0.21047504870373146
aF0.21444627603776412
aF0.2184175033717968
aF0.22238873070582946
aF0.22635995803986214
aF0.2303311853738948
aF0.23430241270792748
aF0.23827364004196014
aF0.2422448673759928
aF0.24621609471002548
aF0.25018732204405814
aF0.2541585493780908
aF0.2581297767121235
aF0.26210100404615616
aF0.2660722313801888
aF0.2700434587142215
aF0.2740146860482542
aF0.27798591338228684
aF0.2819571407163195
aF0.28592836805035216
aF0.2898995953843848
aF0.2938708227184175
aF0.2978420500524502
aF0.30181327738648284
aF0.3057845047205155
aF0.3097557320545482
aF0.31372695938858086
aF0.3176981867226135
aF0.3216694140566462
aF0.32564064139067883
aF0.32961186872471154
aF0.3335830960587442
aF0.33755432339277686
aF0.3415255507268095
aF0.3454967780608422
aF0.3494680053948749
aF0.35343923272890754
aF0.3574104600629402
aF0.36138168739697285
aF0.36535291473100556
aF0.3693241420650382
aF0.3732953693990709
aF0.37726659673310353
aF0.38123782406713624
aF0.3852090514011689
aF0.38918027873520156
aF0.3931515060692342
aF0.39712273340326687
aF0.4010939607372996
aF0.40506518807133224
aF0.4090364154053649
aF0.41300764273939755
aF0.41697887007343026
aF0.4209500974074629
aF0.4249213247414956
aF0.42889255207552823
aF0.43286377940956094
aF0.4368350067435936
aF0.44080623407762626
aF0.4447774614116589
aF0.44874868874569157
aF0.4527199160797243
aF0.45669114341375694
aF0.4606623707477896
aF0.46463359808182225
aF0.46860482541585496
aF0.4725760527498876
aF0.4765472800839203
aF0.48051850741795293
aF0.4844897347519856
aF0.4884609620860183
aF0.49243218942005096
aF0.4964034167540836
aF0.5003746440881163
aF0.5043458714221489
aF0.5083170987561816
aF0.5122883260902142
aF0.516259553424247
aF0.5202307807582797
aF0.5242020080923123
aF0.528173235426345
aF0.5321444627603776
aF0.5361156900944103
aF0.540086917428443
aF0.5440581447624756
aF0.5480293720965084
aF0.552000599430541
aF0.5559718267645737
aF0.5599430540986063
aF0.563914281432639
aF0.5678855087666717
aF0.5718567361007043
aF0.575827963434737
aF0.5797991907687696
aF0.5837704181028024
aF0.587741645436835
aF0.5917128727708677
aF0.5956841001049004
aF0.599655327438933
aF0.6036265547729657
aF0.6075977821069983
aF0.611569009441031
aF0.6155402367750636
aF0.6195114641090964
aF0.6234826914431291
aF0.6274539187771617
aF0.6314251461111944
aF0.635396373445227
aF0.6393676007792597
aF0.6433388281132923
aF0.647310055447325
aF0.6512812827813577
aF0.6552525101153904
aF0.6592237374494231
aF0.6631949647834557
aF0.6671661921174884
aF0.6711374194515211
aF0.6751086467855537
aF0.6790798741195864
aF0.683051101453619
aF0.6870223287876517
aF0.6909935561216844
aF0.6949647834557171
aF0.6989360107897498
aF0.7029072381237824
aF0.7068784654578151
aF0.7108496927918477
aF0.7148209201258804
aF0.718792147459913
aF0.7227633747939457
aF0.7267346021279785
aF0.7307058294620111
aF0.7346770567960438
aF0.7386482841300764
aF0.7426195114641091
aF0.7465907387981418
aF0.7505619661321744
aF0.7545331934662071
aF0.7585044208002397
aF0.7624756481342725
aF0.7664468754683051
aF0.7704181028023378
aF0.7743893301363705
aF0.7783605574704031
aF0.7823317848044358
aF0.7863030121384684
aF0.7902742394725011
aF0.7942454668065337
aF0.7982166941405665
aF0.8021879214745992
aF0.8061591488086318
aF0.8101303761426645
aF0.8141016034766971
aF0.8180728308107298
aF0.8220440581447624
aF0.8260152854787951
aF0.8299865128128278
aF0.8339577401468605
aF0.8379289674808932
aF0.8419001948149258
aF0.8458714221489585
aF0.8498426494829912
aF0.8538138768170238
aF0.8577851041510565
aF0.8617563314850891
aF0.8657275588191219
aF0.8696987861531545
aF0.8736700134871872
aF0.8776412408212199
aF0.8816124681552525
aF0.8855836954892852
aF0.8895549228233178
aF0.8935261501573505
aF0.8974973774913831
aF0.9014686048254159
aF0.9054398321594486
aF0.9094110594934812
aF0.9133822868275139
aF0.9173535141615465
aF0.9213247414955792
aF0.9252959688296118
aF0.9292671961636445
aF0.9332384234976772
aF0.9372096508317099
aF0.9411808781657426
aF0.9451521054997752
aF0.9491233328338079
aF0.9530945601678406
aF0.9570657875018732
aF0.9610370148359059
aF0.9650082421699385
aF0.9689794695039712
aF0.972950696838004
aF0.9769219241720366
aF0.9808931515060693
aF0.9848643788401019
aF0.9888356061741346
aF0.9928068335081672
aF0.9967780608421999
aF1.0007492881762325
aF1.0047205155102652
aF1.0086917428442979
aF1.0126629701783305
aF1.0166341975123632
aF1.0206054248463958
aF1.0245766521804285
aF1.0285478795144614
aF1.032519106848494
aF1.0364903341825267
aF1.0404615615165593
aF1.044432788850592
aF1.0484040161846246
aF1.0523752435186573
aF1.05634647085269
aF1.0603176981867226
aF1.0642889255207553
aF1.068260152854788
aF1.0722313801888206
aF1.0762026075228532
aF1.080173834856886
aF1.0841450621909186
aF1.0881162895249512
aF1.0920875168589839
aF1.0960587441930167
aF1.1000299715270494
aF1.104001198861082
aF1.1079724261951147
aF1.1119436535291474
aF1.11591488086318
aF1.1198861081972127
aF1.1238573355312453
aF1.127828562865278
aF1.1317997901993107
aF1.1357710175333433
aF1.139742244867376
aF1.1437134722014086
aF1.1476846995354413
aF1.151655926869474
aF1.1556271542035066
aF1.1595983815375392
aF1.163569608871572
aF1.1675408362056048
aF1.1715120635396374
aF1.17548329087367
aF1.1794545182077028
aF1.1834257455417354
aF1.187396972875768
aF1.1913682002098007
aF1.1953394275438334
aF1.199310654877866
aF1.2032818822118987
aF1.2072531095459313
aF1.211224336879964
aF1.2151955642139967
aF1.2191667915480293
aF1.223138018882062
aF1.2271092462160946
aF1.2310804735501273
aF1.23505170088416
aF1.2390229282181928
aF1.2429941555522255
aF1.2469653828862581
aF1.2509366102202908
aF1.2549078375543234
aF1.258879064888356
aF1.2628502922223888
aF1.2668215195564214
aF1.270792746890454
aF1.2747639742244867
aF1.2787352015585194
aF1.282706428892552
aF1.2866776562265847
aF1.2906488835606174
aF1.29462011089465
aF1.2985913382286827
aF1.3025625655627153
aF1.306533792896748
aF1.3105050202307809
aF1.3144762475648135
aF1.3184474748988462
aF1.3224187022328788
aF1.3263899295669115
aF1.3303611569009441
aF1.3343323842349768
aF1.3383036115690095
aF1.3422748389030421
aF1.3462460662370748
aF1.3502172935711074
aF1.35418852090514
aF1.3581597482391727
aF1.3621309755732054
aF1.366102202907238
aF1.3700734302412707
aF1.3740446575753034
aF1.3780158849093362
aF1.381987112243369
aF1.3859583395774016
aF1.3899295669114342
aF1.3939007942454669
aF1.3978720215794995
aF1.4018432489135322
aF1.4058144762475648
aF1.4097857035815975
aF1.4137569309156302
aF1.4177281582496628
aF1.4216993855836955
aF1.4256706129177281
aF1.4296418402517608
aF1.4336130675857934
aF1.437584294919826
aF1.4415555222538587
aF1.4455267495878914
aF1.4494979769219243
aF1.453469204255957
aF1.4574404315899896
aF1.4614116589240222
aF1.465382886258055
aF1.4693541135920876
aF1.4733253409261202
aF1.4772965682601529
aF1.4812677955941855
aF1.4852390229282182
aF1.4892102502622508
aF1.4931814775962835
aF1.4971527049303162
aF1.5011239322643488
aF1.5050951595983815
aF1.5090663869324141
aF1.5130376142664468
aF1.5170088416004794
aF1.5209800689345123
aF1.524951296268545
aF1.5289225236025776
aF1.5328937509366103
aF1.536864978270643
aF1.5408362056046756
aF1.5448074329387083
aF1.548778660272741
aF1.5527498876067736
aF1.5567211149408062
aF1.5606923422748389
aF1.5646635696088715
aF1.5686347969429042
aF1.5726060242769369
aF1.5765772516109695
aF1.5805484789450022
aF1.5845197062790348
aF1.5884909336130675
aF1.5924621609471004
aF1.596433388281133
aF1.6004046156151657
aF1.6043758429491983
aF1.608347070283231
aF1.6123182976172636
aF1.6162895249512963
aF1.620260752285329
aF1.6242319796193616
aF1.6282032069533943
aF1.632174434287427
aF1.6361456616214596
aF1.6401168889554922
aF1.644088116289525
aF1.6480593436235575
aF1.6520305709575902
aF1.6560017982916229
aF1.6599730256256555
aF1.6639442529596884
aF1.667915480293721
aF1.6718867076277537
aF1.6758579349617864
aF1.679829162295819
aF1.6838003896298517
aF1.6877716169638843
aF1.691742844297917
aF1.6957140716319496
aF1.6996852989659823
aF1.703656526300015
aF1.7076277536340476
aF1.7115989809680803
aF1.715570208302113
aF1.7195414356361456
aF1.7235126629701782
aF1.727483890304211
aF1.7314551176382438
aF1.7354263449722764
aF1.739397572306309
aF1.7433687996403417
aF1.7473400269743744
aF1.751311254308407
aF1.7552824816424397
aF1.7592537089764724
aF1.763224936310505
aF1.7671961636445377
aF1.7711673909785703
aF1.775138618312603
aF1.7791098456466357
aF1.7830810729806683
aF1.787052300314701
aF1.7910235276487336
aF1.7949947549827663
aF1.798965982316799
aF1.8029372096508318
aF1.8069084369848645
aF1.8108796643188971
aF1.8148508916529298
aF1.8188221189869624
aF1.822793346320995
aF1.8267645736550278
aF1.8307358009890604
aF1.834707028323093
aF1.8386782556571257
aF1.8426494829911584
aF1.846620710325191
aF1.8505919376592237
aF1.8545631649932564
aF1.858534392327289
aF1.8625056196613217
aF1.8664768469953543
aF1.870448074329387
aF1.8744193016634199
aF1.8783905289974525
aF1.8823617563314852
aF1.8863329836655178
aF1.8903042109995505
aF1.8942754383335831
aF1.8982466656676158
aF1.9022178930016485
aF1.906189120335681
aF1.9101603476697138
aF1.9141315750037464
aF1.918102802337779
aF1.9220740296718117
aF1.9260452570058444
aF1.930016484339877
aF1.9339877116739097
aF1.9379589390079424
aF1.941930166341975
aF1.945901393676008
aF1.9498726210100406
aF1.9538438483440732
aF1.9578150756781059
aF1.9617863030121385
aF1.9657575303461712
aF1.9697287576802038
aF1.9736999850142365
aF1.9776712123482691
aF1.9816424396823018
aF1.9856136670163345
aF1.9895848943503671
aF1.9935561216843998
aF1.9975273490184324
aF2.001498576352465
aF2.005469803686498
aF2.0094410310205304
aF2.0134122583545633
aF2.0173834856885957
aF2.0213547130226286
aF2.025325940356661
aF2.029297167690694
aF2.0332683950247263
aF2.037239622358759
aF2.0412108496927917
aF2.0451820770268245
aF2.049153304360857
aF2.05312453169489
aF2.0570957590289227
aF2.061066986362955
aF2.065038213696988
aF2.0690094410310205
aF2.0729806683650533
aF2.076951895699086
aF2.0809231230331187
aF2.084894350367151
aF2.088865577701184
aF2.0928368050352164
aF2.0968080323692493
aF2.1007792597032817
aF2.1047504870373146
aF2.108721714371347
aF2.11269294170538
aF2.1166641690394123
aF2.1206353963734452
aF2.124606623707478
aF2.1285778510415105
aF2.1325490783755434
aF2.136520305709576
aF2.1404915330436087
aF2.144462760377641
aF2.148433987711674
aF2.1524052150457065
aF2.1563764423797394
aF2.160347669713772
aF2.1643188970478047
aF2.168290124381837
aF2.17226135171587
aF2.1762325790499024
aF2.1802038063839353
aF2.1841750337179677
aF2.1881462610520006
aF2.1921174883860335
aF2.196088715720066
aF2.200059943054099
aF2.2040311703881312
aF2.208002397722164
aF2.2119736250561965
aF2.2159448523902294
aF2.219916079724262
aF2.2238873070582947
aF2.227858534392327
aF2.23182976172636
aF2.2358009890603925
aF2.2397722163944254
aF2.243743443728458
aF2.2477146710624907
aF2.251685898396523
aF2.255657125730556
aF2.2596283530645884
aF2.2635995803986213
aF2.267570807732654
aF2.2715420350666866
aF2.2755132624007195
aF2.279484489734752
aF2.283455717068785
aF2.2874269444028172
aF2.29139817173685
aF2.2953693990708826
aF2.2993406264049154
aF2.303311853738948
aF2.3072830810729807
aF2.311254308407013
aF2.315225535741046
aF2.3191967630750785
aF2.3231679904091114
aF2.327139217743144
aF2.3311104450771767
aF2.3350816724112096
aF2.339052899745242
aF2.343024127079275
aF2.3469953544133073
aF2.35096658174734
aF2.3549378090813726
aF2.3589090364154055
aF2.362880263749438
aF2.366851491083471
aF2.3708227184175032
aF2.374793945751536
aF2.3787651730855686
aF2.3827364004196014
aF2.386707627753634
aF2.3906788550876668
aF2.394650082421699
aF2.398621309755732
aF2.4025925370897645
aF2.4065637644237974
aF2.4105349917578303
aF2.4145062190918627
aF2.4184774464258956
aF2.422448673759928
aF2.426419901093961
aF2.4303911284279933
aF2.434362355762026
aF2.4383335830960586
aF2.4423048104300915
aF2.446276037764124
aF2.450247265098157
aF2.4542184924321893
aF2.458189719766222
aF2.4621609471002546
aF2.4661321744342874
aF2.47010340176832
aF2.4740746291023528
aF2.4780458564363856
aF2.482017083770418
aF2.485988311104451
aF2.4899595384384834
aF2.4939307657725163
aF2.4979019931065487
aF2.5018732204405816
aF2.505844447774614
aF2.509815675108647
aF2.5137869024426793
aF2.517758129776712
aF2.5217293571107446
aF2.5257005844447775
aF2.52967181177881
aF2.533643039112843
aF2.5376142664468753
aF2.541585493780908
aF2.545556721114941
aF2.5495279484489735
aF2.5534991757830063
aF2.5574704031170388
aF2.5614416304510716
aF2.565412857785104
aF2.569384085119137
aF2.5733553124531694
aF2.5773265397872023
aF2.5812977671212347
aF2.5852689944552676
aF2.5892402217893
aF2.593211449123333
aF2.5971826764573653
aF2.601153903791398
aF2.6051251311254306
aF2.6090963584594635
aF2.613067585793496
aF2.617038813127529
aF2.6210100404615617
aF2.624981267795594
aF2.628952495129627
aF2.6329237224636595
aF2.6368949497976923
aF2.640866177131725
aF2.6448374044657577
aF2.64880863179979
aF2.652779859133823
aF2.6567510864678554
aF2.6607223138018883
aF2.6646935411359207
aF2.6686647684699536
aF2.672635995803986
aF2.676607223138019
aF2.6805784504720513
aF2.6845496778060842
aF2.688520905140117
aF2.6924921324741495
aF2.6964633598081824
aF2.700434587142215
aF2.7044058144762477
aF2.70837704181028
aF2.712348269144313
aF2.7163194964783455
aF2.7202907238123784
aF2.724261951146411
aF2.7282331784804437
aF2.732204405814476
aF2.736175633148509
aF2.7401468604825414
aF2.7441180878165743
aF2.7480893151506067
aF2.7520605424846396
aF2.7560317698186725
aF2.760002997152705
aF2.763974224486738
aF2.7679454518207702
aF2.771916679154803
aF2.7758879064888355
aF2.7798591338228684
aF2.783830361156901
aF2.7878015884909337
aF2.791772815824966
aF2.795744043158999
aF2.7997152704930315
aF2.8036864978270644
aF2.807657725161097
aF2.8116289524951297
aF2.815600179829162
aF2.819571407163195
aF2.8235426344972274
aF2.8275138618312603
aF2.831485089165293
aF2.8354563164993256
aF2.8394275438333585
aF2.843398771167391
aF2.847369998501424
aF2.8513412258354562
aF2.855312453169489
aF2.8592836805035216
aF2.8632549078375544
aF2.867226135171587
aF2.8711973625056197
aF2.875168589839652
aF2.879139817173685
aF2.8831110445077175
aF2.8870822718417504
aF2.891053499175783
aF2.8950247265098157
aF2.8989959538438486
aF2.902967181177881
aF2.906938408511914
aF2.9109096358459463
aF2.914880863179979
aF2.9188520905140116
aF2.9228233178480445
aF2.926794545182077
aF2.93076577251611
aF2.9347369998501422
aF2.938708227184175
aF2.9426794545182076
aF2.9466506818522404
aF2.950621909186273
aF2.9545931365203058
aF2.958564363854338
aF2.962535591188371
aF2.9665068185224035
aF2.9704780458564364
aF2.9744492731904693
aF2.9784205005245017
aF2.9823917278585346
aF2.986362955192567
aF2.9903341825266
aF2.9943054098606323
aF2.998276637194665
aF3.0022478645286976
aF3.0062190918627305
aF3.010190319196763
aF3.014161546530796
aF3.0181327738648283
aF3.022104001198861
aF3.0260752285328936
aF3.0300464558669264
aF3.034017683200959
aF3.0379889105349918
aF3.0419601378690246
aF3.045931365203057
aF3.04990259253709
aF3.0538738198711224
aF3.0578450472051553
aF3.0618162745391877
aF3.0657875018732206
aF3.069758729207253
aF3.073729956541286
aF3.0777011838753183
aF3.081672411209351
aF3.0856436385433836
aF3.0896148658774165
aF3.093586093211449
aF3.097557320545482
aF3.1015285478795143
aF3.105499775213547
aF3.10947100254758
aF3.1134422298816125
aF3.1174134572156453
aF3.1213846845496778
aF3.1253559118837106
aF3.129327139217743
aF3.133298366551776
aF3.1372695938858084
aF3.1412408212198413
aF3.1452120485538737
aF3.1491832758879066
aF3.153154503221939
aF3.157125730555972
aF3.1610969578900043
aF3.165068185224037
aF3.1690394125580696
aF3.1730106398921025
aF3.176981867226135
aF3.180953094560168
aF3.1849243218942007
aF3.188895549228233
aF3.192866776562266
aF3.1968380038962985
aF3.2008092312303313
aF3.2047804585643638
aF3.2087516858983967
atp25
tp26
Rp27
aa(lp28
S'loss1/loss1'
p29
ag0
(g21
g22
(S'SoftmaxWithLoss'
p30
(lp31
F1.0809
aF8.52198
aF0.539898
aF0.862665
aF7.55624
aF7.42475
aF0.850652
aF0.658735
aF1.07365
aF1.03302
aF0.818702
aF0.899576
aF0.736433
aF0.64091
aF0.710539
aF0.959674
aF1.04058
aF8.82594
aF0.808444
aF0.611225
aF0.826399
aF0.844535
aF0.790503
aF0.69812
aF0.994624
aF0.902867
aF0.858394
aF1.15755
aF0.796778
aF0.942752
aF0.844585
aF1.32965
aF0.844788
aF1.18164
aF0.996181
aF0.738765
aF0.955838
aF6.02384
aF1.09299
aF0.899209
aF0.766868
aF0.930255
aF0.981585
aF0.776024
aF1.15929
aF0.687016
aF0.759516
aF1.00575
aF0.873159
aF1.00723
aF1.21856
aF0.789277
aF0.598666
aF1.19239
aF0.698101
aF0.791672
aF0.90475
aF1.00562
aF1.06578
aF0.909292
aF0.768781
aF0.922695
aF7.66449
aF0.988963
aF0.806381
aF0.778856
aF0.909388
aF1.15096
aF0.855488
aF1.1354
aF0.619513
aF0.774344
aF0.864151
aF1.18037
aF0.961775
aF0.754632
aF0.509062
aF0.730888
aF0.571745
aF0.775976
aF1.10201
aF8.14838
aF0.958446
aF0.767077
aF0.710516
aF0.852765
aF1.20077
aF0.954446
aF0.767256
aF0.824181
aF0.918012
aF0.698753
aF0.81949
aF0.872814
aF0.891171
aF0.944574
aF0.990039
aF1.11409
aF0.846113
aF1.09203
aF1.13376
aF0.722384
aF1.13868
aF0.753868
aF0.769499
aF0.785959
aF0.844417
aF0.627953
aF0.919194
aF0.740813
aF8.1785
aF0.854843
aF0.848569
aF0.94979
aF0.66328
aF0.961265
aF1.08802
aF0.994407
aF0.814649
aF6.38875
aF0.914909
aF0.664332
aF0.775386
aF0.996124
aF1.00695
aF0.824728
aF0.724661
aF7.13802
aF0.766376
aF0.897927
aF0.853074
aF1.08593
aF0.846808
aF0.73129
aF0.84674
aF0.851044
aF0.864014
aF0.712797
aF0.869077
aF0.791821
aF0.70405
aF0.930075
aF0.955392
aF0.841223
aF0.947264
aF0.801844
aF1.02895
aF1.09459
aF0.824914
aF0.969708
aF0.847794
aF1.0605
aF8.62357
aF1.01381
aF0.964535
aF0.726371
aF0.676549
aF0.802958
aF0.973489
aF1.06033
aF0.974716
aF0.500959
aF0.829833
aF0.968304
aF0.883178
aF0.999213
aF0.874952
aF0.686504
aF0.804709
aF0.856116
aF0.71322
aF0.926803
aF0.542517
aF0.949773
aF0.833231
aF0.638822
aF0.652895
aF0.788058
aF0.960756
aF1.22583
aF1.06166
aF1.29081
aF0.720006
aF1.05926
aF0.455896
aF0.909321
aF0.62606
aF0.80805
aF0.620697
aF0.727571
aF1.18183
aF0.868088
aF0.836045
aF0.896661
aF0.939416
aF0.674968
aF0.88066
aF0.743589
aF0.981643
aF0.858662
aF0.702436
aF0.544105
aF0.925566
aF0.852518
aF0.821356
aF0.606273
aF8.36569
aF0.543634
aF0.972488
aF0.750736
aF0.860046
aF0.986676
aF0.768252
aF0.834777
aF0.666487
aF0.785131
aF0.816328
aF1.0608
aF8.47007
aF7.13184
aF0.933154
aF0.926608
aF0.789979
aF0.884055
aF0.494783
aF0.596415
aF0.907202
aF0.902143
aF1.10483
aF0.459227
aF0.914149
aF1.07472
aF0.769867
aF1.11577
aF0.802135
aF1.17402
aF0.990899
aF0.672438
aF0.720739
aF1.12091
aF0.575929
aF0.876291
aF1.00688
aF1.00567
aF0.78995
aF5.44037
aF5.71263
aF0.935006
aF0.8916
aF0.619111
aF0.780945
aF0.697292
aF0.846391
aF0.978813
aF1.10545
aF0.620622
aF0.850284
aF0.891217
aF1.01008
aF0.797644
aF0.648884
aF0.667708
aF0.797693
aF0.614203
aF0.800273
aF0.850471
aF0.655515
aF0.929597
aF0.886217
aF0.803901
aF0.825354
aF0.63413
aF0.822746
aF1.1581
aF1.01838
aF0.505589
aF0.810805
aF0.875071
aF0.986912
aF1.11436
aF0.897672
aF0.917467
aF0.775231
aF0.864582
aF0.75833
aF0.844962
aF0.87452
aF0.950413
aF0.677144
aF0.753436
aF0.65475
aF0.962474
aF0.93416
aF0.724323
aF0.846144
aF0.562025
aF1.15981
aF1.0737
aF0.634836
aF0.968734
aF1.14617
aF1.10204
aF1.06938
aF0.762087
aF6.92311
aF1.30693
aF1.19798
aF5.79562
aF1.13197
aF0.820505
aF0.737872
aF0.899595
aF0.98564
aF0.948737
aF0.611674
aF0.992842
aF6.81451
aF0.787925
aF5.23076
aF0.957017
aF1.00633
aF0.987338
aF0.921554
aF0.833963
aF7.36201
aF0.971526
aF0.678146
aF0.776764
aF0.741133
aF0.802874
aF0.627425
aF0.822924
aF0.902727
aF0.975562
aF0.811276
aF1.07278
aF0.863773
aF0.891726
aF1.11755
aF0.82645
aF0.806614
aF0.609528
aF1.05215
aF0.962226
aF0.976785
aF0.562012
aF0.951962
aF0.692862
aF0.53562
aF0.696654
aF0.784538
aF7.65506
aF0.975858
aF0.931266
aF0.560256
aF0.935249
aF0.467846
aF0.856943
aF1.11729
aF0.655529
aF0.755281
aF0.761071
aF0.98867
aF0.741179
aF0.872641
aF1.21736
aF1.0506
aF0.829929
aF0.702394
aF0.975245
aF0.752173
aF0.841697
aF0.920502
aF4.82081
aF1.38079
aF1.07215
aF1.27262
aF0.803548
aF0.864058
aF0.964736
aF0.637631
aF0.638388
aF1.12354
aF1.03265
aF7.39416
aF0.815558
aF0.781729
aF0.60096
aF1.00975
aF0.780347
aF0.731653
aF1.08511
aF0.861057
aF0.858634
aF0.985627
aF0.947842
aF1.00733
aF0.515409
aF0.823928
aF0.596229
aF0.762591
aF0.86356
aF0.886037
aF0.720389
aF0.869716
aF1.0753
aF0.729885
aF0.933484
aF0.75533
aF0.929179
aF0.808335
aF0.75128
aF0.742524
aF1.06994
aF1.06772
aF1.15546
aF0.856256
aF0.634965
aF1.22212
aF0.842415
aF0.76195
aF0.863769
aF0.825817
aF0.691985
aF0.888315
aF0.761474
aF0.889981
aF0.713117
aF0.861488
aF0.737721
aF1.15505
aF0.7248
aF0.527596
aF0.719885
aF0.704423
aF0.758882
aF0.925014
aF0.938894
aF7.56625
aF8.22297
aF0.764934
aF0.783749
aF0.789508
aF7.62537
aF0.867116
aF1.15479
aF0.988404
aF1.0
aF1.03513
aF0.830003
aF0.878184
aF1.09299
aF0.692061
aF0.779342
aF0.802987
aF0.742412
aF1.13316
aF0.84496
aF0.937161
aF0.990647
aF0.829576
aF0.856254
aF0.78185
aF1.07425
aF1.02924
aF0.659495
aF1.02531
aF0.704822
aF0.910599
aF0.824715
aF0.814561
aF0.752544
aF0.85086
aF0.866837
aF1.08112
aF0.84213
aF0.850307
aF0.748858
aF1.12173
aF0.641841
aF0.903837
aF0.992956
aF0.776536
aF0.652542
aF0.880014
aF1.03404
aF0.803477
aF1.06619
aF0.746976
aF1.00302
aF0.678966
aF0.906164
aF0.891023
aF1.20081
aF1.13076
aF0.987528
aF7.19175
aF0.970796
aF0.86445
aF0.605794
aF0.831232
aF0.764593
aF0.661825
aF0.831933
aF0.697848
aF1.02977
aF0.689462
aF0.876684
aF1.05854
aF1.00847
aF0.700794
aF0.782392
aF0.884655
aF0.586502
aF1.40427
aF0.585966
aF1.23023
aF0.807795
aF0.634311
aF0.977416
aF0.823461
aF1.11041
aF1.04443
aF1.02487
aF0.804794
aF0.872738
aF0.971114
aF0.841173
aF0.678966
aF0.988343
aF0.591842
aF1.15312
aF0.847421
aF0.797565
aF1.00296
aF0.741012
aF0.976714
aF0.792785
aF1.0595
aF1.08027
aF0.745289
aF8.03162
aF0.833378
aF0.599471
aF0.742066
aF1.00443
aF0.729411
aF0.97096
aF0.699328
aF6.6641
aF0.603238
aF0.908865
aF0.914264
aF0.649616
aF0.903422
aF0.861562
aF0.847239
aF0.921706
aF0.839778
aF0.557868
aF7.17518
aF0.886995
aF0.886384
aF1.06131
aF5.81749
aF0.889671
aF0.957372
aF0.790811
aF0.978589
aF0.927563
aF0.926122
aF0.797013
aF1.03611
aF0.906239
aF0.851013
aF0.853686
aF0.867724
aF0.723362
aF0.914505
aF1.05904
aF0.986027
aF1.02209
aF0.565425
aF0.596498
aF0.934959
aF0.943221
aF0.521255
aF0.908866
aF0.898055
aF1.04124
aF0.776371
aF1.00796
aF0.724284
aF0.773395
aF0.717417
aF0.884613
aF7.63521
aF0.798666
aF0.704178
aF0.848061
aF1.12635
aF1.09699
aF6.74221
aF6.01723
aF0.898542
aF0.769161
aF0.824825
aF0.560446
aF0.862988
aF0.994867
aF1.24077
aF0.757922
aF0.781215
aF0.84236
aF0.968758
aF0.907461
aF0.837624
aF0.797533
aF0.705586
aF1.07618
aF1.09231
aF0.421231
aF0.917969
aF0.701713
aF1.32698
aF0.663726
aF0.797644
aF0.932901
aF0.792113
aF0.916881
aF0.912468
aF0.675928
aF1.21011
aF0.855288
aF0.75708
aF1.24992
aF0.759539
aF0.850282
aF0.999032
aF1.10272
aF0.975493
aF0.919244
aF1.09483
aF0.679376
aF0.642681
aF0.810911
aF0.488285
aF0.833022
aF0.646819
aF0.883235
aF1.06924
aF0.872063
aF1.09768
aF1.06098
aF0.893851
aF0.827689
aF1.09748
aF0.859581
aF0.926244
aF1.09193
aF0.702677
aF0.820057
aF0.437286
aF0.624916
aF0.956035
aF0.846111
aF6.27272
aF0.880852
aF0.796148
aF1.0039
aF0.854008
aF0.788766
aF0.564374
aF0.585431
aF0.876741
aF0.857325
aF1.08623
aF1.08407
aF0.932273
aF0.943006
aF0.746205
aF0.846779
aF0.826124
aF0.818901
aF0.737899
aF0.75829
aF0.795211
aF0.945782
aF0.762428
aF7.36294
aF0.984395
aF1.31508
aF1.13813
aF0.658151
aF0.684331
aF0.976392
aF0.912053
aF0.603092
aF0.634889
aF0.891251
aF0.574106
aF0.824629
aF0.868737
aF0.883154
aF0.857171
aF0.555256
aF0.735039
aF0.778609
aF0.812927
aF0.856178
aF0.78829
aF0.913083
aF1.18086
aF0.798796
aF0.518622
aF0.924019
aF1.2088
aF0.777252
aF0.845446
aF1.45343
aF0.538883
aF0.996431
aF0.809874
aF0.739451
aF0.810644
aF0.923124
aF1.03547
aF0.688722
aF0.732011
aF1.02326
aF0.999617
aF0.737992
aF0.661151
aF1.16724
aF0.63375
aF0.897023
aF0.792483
aF0.9157
aF0.94249
aF0.986088
aF0.824715
aF0.652616
aF0.794669
aF0.71539
aF0.902106
aF0.526534
aF0.609599
aF0.773467
aF0.928874
aF0.612711
aF0.726153
aF0.776821
aF0.779645
aF0.785037
aF0.905659
aF0.776354
aF0.715971
aF5.74529
aF6.50027
aF0.859097
aF0.8808
aF0.711177
aF0.596598
aF6.52961
aF0.94598
aF0.698982
aF0.576799
aF0.694635
aF0.680387
aF0.994275
aF0.889247
aF1.00226
aF0.773424
aF1.04145
aF0.810763
aF0.965539
aF1.16174
aF0.993672
aF0.941347
aF0.747714
aF0.889926
aF1.2305
aF0.822437
aF0.874915
aF0.830648
aF0.799428
aF0.960686
aF0.682247
aF0.832752
aF0.755257
aF1.27729
aF0.713099
aF6.21512
aF0.976114
aF1.23353
aF0.843004
aF6.18531
aF6.58637
aF0.642561
aF1.01015
aF0.934877
aF0.947008
aF0.88723
aF0.924097
aF0.935967
aF0.875127
aF0.837565
aF0.814259
aF0.895356
atp32
tp33
Rp34
aa(lp35
S'loss1/top-1'
p36
ag0
(g21
g22
(S'Accuracy'
p37
(lp38
F0.708333
aF0.0833333
aF0.8125
aF0.75
aF0.0625
aF0.0625
aF0.729167
aF0.791667
aF0.729167
aF0.75
aF0.708333
aF0.75
aF0.791667
aF0.770833
aF0.8125
aF0.75
aF0.770833
aF0.0833333
aF0.75
aF0.8125
aF0.708333
aF0.75
aF0.708333
aF0.75
aF0.6875
aF0.75
aF0.8125
aF0.625
aF0.75
aF0.8125
aF0.708333
aF0.625
aF0.770833
aF0.6875
aF0.6875
aF0.833333
aF0.729167
aF0.125
aF0.6875
aF0.8125
aF0.729167
aF0.708333
aF0.75
aF0.770833
aF0.6875
aF0.8125
aF0.833333
aF0.791667
aF0.729167
aF0.729167
aF0.625
aF0.854167
aF0.854167
aF0.645833
aF0.770833
aF0.729167
aF0.791667
aF0.708333
aF0.645833
aF0.6875
aF0.791667
aF0.729167
aF0.0416667
aF0.6875
aF0.729167
aF0.791667
aF0.770833
aF0.6875
aF0.666667
aF0.604167
aF0.8125
aF0.770833
aF0.729167
aF0.625
aF0.75
aF0.75
aF0.875
aF0.75
aF0.833333
aF0.75
aF0.666667
aF0.0208333
aF0.770833
aF0.833333
aF0.75
aF0.8125
aF0.6875
aF0.729167
aF0.708333
aF0.770833
aF0.770833
aF0.770833
aF0.75
aF0.6875
aF0.729167
aF0.75
aF0.791667
aF0.625
aF0.6875
aF0.625
aF0.729167
aF0.6875
aF0.666667
aF0.75
aF0.75
aF0.729167
aF0.6875
aF0.770833
aF0.708333
aF0.791667
aF0.0625
aF0.729167
aF0.833333
aF0.729167
aF0.833333
aF0.625
aF0.6875
aF0.645833
aF0.833333
aF0.0833333
aF0.75
aF0.770833
aF0.8125
aF0.729167
aF0.708333
aF0.729167
aF0.833333
aF0.0625
aF0.75
aF0.729167
aF0.708333
aF0.6875
aF0.791667
aF0.729167
aF0.8125
aF0.8125
aF0.791667
aF0.8125
aF0.75
aF0.8125
aF0.791667
aF0.666667
aF0.645833
aF0.729167
aF0.666667
aF0.708333
aF0.708333
aF0.6875
aF0.791667
aF0.708333
aF0.770833
aF0.666667
aF0.0
aF0.75
aF0.604167
aF0.770833
aF0.770833
aF0.729167
aF0.708333
aF0.666667
aF0.6875
aF0.8125
aF0.666667
aF0.791667
aF0.604167
aF0.666667
aF0.75
aF0.8125
aF0.708333
aF0.75
aF0.729167
aF0.666667
aF0.791667
aF0.625
aF0.770833
aF0.791667
aF0.75
aF0.75
aF0.645833
aF0.645833
aF0.6875
aF0.5625
aF0.8125
aF0.6875
aF0.875
aF0.708333
aF0.770833
aF0.708333
aF0.770833
aF0.8125
aF0.5625
aF0.770833
aF0.791667
aF0.729167
aF0.6875
aF0.791667
aF0.708333
aF0.75
aF0.729167
aF0.729167
aF0.8125
aF0.833333
aF0.708333
aF0.75
aF0.791667
aF0.791667
aF0.0625
aF0.833333
aF0.729167
aF0.729167
aF0.729167
aF0.708333
aF0.770833
aF0.729167
aF0.75
aF0.8125
aF0.770833
aF0.604167
aF0.0208333
aF0.0416667
aF0.6875
aF0.708333
aF0.729167
aF0.770833
aF0.916667
aF0.8125
aF0.729167
aF0.729167
aF0.6875
aF0.854167
aF0.6875
aF0.645833
aF0.770833
aF0.625
aF0.75
aF0.666667
aF0.666667
aF0.791667
aF0.666667
aF0.645833
aF0.833333
aF0.729167
aF0.6875
aF0.75
aF0.666667
aF0.0833333
aF0.0625
aF0.791667
aF0.708333
aF0.791667
aF0.8125
aF0.791667
aF0.770833
aF0.6875
aF0.729167
aF0.770833
aF0.770833
aF0.666667
aF0.6875
aF0.729167
aF0.8125
aF0.8125
aF0.708333
aF0.8125
aF0.75
aF0.708333
aF0.770833
aF0.75
aF0.75
aF0.770833
aF0.708333
aF0.8125
aF0.770833
aF0.708333
aF0.6875
aF0.8125
aF0.729167
aF0.770833
aF0.791667
aF0.645833
aF0.708333
aF0.75
aF0.75
aF0.729167
aF0.770833
aF0.770833
aF0.770833
aF0.645833
aF0.833333
aF0.6875
aF0.833333
aF0.6875
aF0.708333
aF0.8125
aF0.8125
aF0.833333
aF0.708333
aF0.6875
aF0.8125
aF0.75
aF0.5625
aF0.645833
aF0.645833
aF0.75
aF0.0208333
aF0.625
aF0.666667
aF0.0416667
aF0.666667
aF0.729167
aF0.770833
aF0.791667
aF0.666667
aF0.729167
aF0.875
aF0.770833
aF0.104167
aF0.6875
aF0.145833
aF0.75
aF0.708333
aF0.708333
aF0.666667
aF0.791667
aF0.0416667
aF0.770833
aF0.770833
aF0.770833
aF0.729167
aF0.729167
aF0.833333
aF0.729167
aF0.708333
aF0.708333
aF0.708333
aF0.645833
aF0.75
aF0.75
aF0.6875
aF0.729167
aF0.729167
aF0.8125
aF0.6875
aF0.6875
aF0.604167
aF0.791667
aF0.666667
aF0.791667
aF0.833333
aF0.8125
aF0.770833
aF0.104167
aF0.708333
aF0.729167
aF0.8125
aF0.6875
aF0.854167
aF0.6875
aF0.625
aF0.791667
aF0.708333
aF0.8125
aF0.666667
aF0.75
aF0.708333
aF0.583333
aF0.708333
aF0.729167
aF0.854167
aF0.666667
aF0.729167
aF0.770833
aF0.75
aF0.125
aF0.604167
aF0.666667
aF0.625
aF0.791667
aF0.770833
aF0.666667
aF0.8125
aF0.791667
aF0.708333
aF0.666667
aF0.0833333
aF0.791667
aF0.75
aF0.854167
aF0.729167
aF0.75
aF0.791667
aF0.770833
aF0.729167
aF0.6875
aF0.729167
aF0.770833
aF0.708333
aF0.833333
aF0.729167
aF0.854167
aF0.770833
aF0.729167
aF0.770833
aF0.770833
aF0.729167
aF0.645833
aF0.770833
aF0.729167
aF0.791667
aF0.625
aF0.75
aF0.729167
aF0.75
aF0.604167
aF0.645833
aF0.6875
aF0.708333
aF0.770833
aF0.645833
aF0.75
aF0.75
aF0.770833
aF0.6875
aF0.75
aF0.729167
aF0.75
aF0.75
aF0.791667
aF0.729167
aF0.75
aF0.645833
aF0.770833
aF0.8125
aF0.791667
aF0.770833
aF0.791667
aF0.75
aF0.75
aF0.0416667
aF0.0
aF0.833333
aF0.729167
aF0.75
aF0.0
aF0.75
aF0.6875
aF0.625
aF0.708333
aF0.666667
aF0.75
aF0.791667
aF0.604167
aF0.854167
aF0.8125
aF0.729167
aF0.75
aF0.645833
aF0.791667
aF0.791667
aF0.6875
aF0.791667
aF0.8125
aF0.791667
aF0.6875
aF0.708333
aF0.75
aF0.6875
aF0.770833
aF0.708333
aF0.75
aF0.729167
aF0.75
aF0.770833
aF0.8125
aF0.5625
aF0.75
aF0.729167
aF0.8125
aF0.645833
aF0.875
aF0.708333
aF0.75
aF0.75
aF0.833333
aF0.75
aF0.729167
aF0.791667
aF0.666667
aF0.770833
aF0.708333
aF0.833333
aF0.6875
aF0.729167
aF0.666667
aF0.6875
aF0.666667
aF0.0416667
aF0.791667
aF0.770833
aF0.854167
aF0.75
aF0.75
aF0.8125
aF0.770833
aF0.791667
aF0.708333
aF0.770833
aF0.708333
aF0.625
aF0.6875
aF0.791667
aF0.729167
aF0.770833
aF0.833333
aF0.5625
aF0.8125
aF0.645833
aF0.729167
aF0.833333
aF0.6875
aF0.75
aF0.666667
aF0.729167
aF0.6875
aF0.770833
aF0.770833
aF0.708333
aF0.729167
aF0.770833
aF0.666667
aF0.8125
aF0.666667
aF0.708333
aF0.770833
aF0.6875
aF0.75
aF0.645833
aF0.75
aF0.583333
aF0.6875
aF0.791667
aF0.0833333
aF0.833333
aF0.833333
aF0.875
aF0.791667
aF0.8125
aF0.708333
aF0.791667
aF0.104167
aF0.8125
aF0.6875
aF0.708333
aF0.833333
aF0.708333
aF0.6875
aF0.770833
aF0.729167
aF0.770833
aF0.770833
aF0.104167
aF0.708333
aF0.666667
aF0.6875
aF0.1875
aF0.75
aF0.6875
aF0.791667
aF0.666667
aF0.6875
aF0.625
aF0.770833
aF0.708333
aF0.6875
aF0.729167
aF0.6875
aF0.75
aF0.770833
aF0.791667
aF0.75
aF0.729167
aF0.645833
aF0.833333
aF0.791667
aF0.729167
aF0.708333
aF0.791667
aF0.708333
aF0.645833
aF0.666667
aF0.6875
aF0.708333
aF0.770833
aF0.791667
aF0.833333
aF0.625
aF0.0208333
aF0.75
aF0.833333
aF0.729167
aF0.645833
aF0.708333
aF0.0
aF0.0625
aF0.791667
aF0.75
aF0.791667
aF0.854167
aF0.770833
aF0.75
aF0.5625
aF0.8125
aF0.791667
aF0.6875
aF0.729167
aF0.791667
aF0.791667
aF0.75
aF0.833333
aF0.6875
aF0.6875
aF0.875
aF0.729167
aF0.8125
aF0.625
aF0.854167
aF0.770833
aF0.645833
aF0.75
aF0.791667
aF0.75
aF0.833333
aF0.645833
aF0.75
aF0.8125
aF0.708333
aF0.791667
aF0.770833
aF0.708333
aF0.645833
aF0.666667
aF0.645833
aF0.708333
aF0.729167
aF0.791667
aF0.791667
aF0.916667
aF0.708333
aF0.8125
aF0.75
aF0.708333
aF0.770833
aF0.666667
aF0.75
aF0.708333
aF0.770833
aF0.6875
aF0.6875
aF0.666667
aF0.708333
aF0.8125
aF0.729167
aF0.854167
aF0.833333
aF0.666667
aF0.75
aF0.0416667
aF0.75
aF0.75
aF0.6875
aF0.708333
aF0.708333
aF0.8125
aF0.833333
aF0.75
aF0.770833
aF0.6875
aF0.708333
aF0.666667
aF0.729167
aF0.770833
aF0.770833
aF0.6875
aF0.6875
aF0.791667
aF0.770833
aF0.729167
aF0.645833
aF0.8125
aF0.0208333
aF0.6875
aF0.520833
aF0.6875
aF0.770833
aF0.770833
aF0.645833
aF0.708333
aF0.791667
aF0.791667
aF0.75
aF0.833333
aF0.854167
aF0.770833
aF0.75
aF0.770833
aF0.854167
aF0.770833
aF0.666667
aF0.708333
aF0.75
aF0.729167
aF0.729167
aF0.729167
aF0.75
aF0.854167
aF0.6875
aF0.645833
aF0.770833
aF0.770833
aF0.666667
aF0.875
aF0.666667
aF0.770833
aF0.729167
aF0.75
aF0.6875
aF0.6875
aF0.833333
aF0.770833
aF0.6875
aF0.645833
aF0.770833
aF0.708333
aF0.666667
aF0.854167
aF0.708333
aF0.729167
aF0.708333
aF0.666667
aF0.666667
aF0.729167
aF0.833333
aF0.708333
aF0.791667
aF0.75
aF0.875
aF0.833333
aF0.729167
aF0.75
aF0.8125
aF0.75
aF0.791667
aF0.791667
aF0.75
aF0.708333
aF0.791667
aF0.833333
aF0.0833333
aF0.0833333
aF0.791667
aF0.75
aF0.770833
aF0.895833
aF0.104167
aF0.770833
aF0.8125
aF0.854167
aF0.770833
aF0.770833
aF0.770833
aF0.75
aF0.6875
aF0.729167
aF0.645833
aF0.791667
aF0.729167
aF0.666667
aF0.6875
aF0.729167
aF0.8125
aF0.75
aF0.666667
aF0.75
aF0.791667
aF0.729167
aF0.6875
aF0.75
aF0.791667
aF0.770833
aF0.770833
aF0.5625
aF0.833333
aF0.0833333
aF0.75
aF0.6875
aF0.708333
aF0.125
aF0.0833333
aF0.770833
aF0.708333
aF0.6875
aF0.6875
aF0.645833
aF0.708333
aF0.625
aF0.791667
aF0.791667
aF0.770833
aF0.791667
atp39
tp40
Rp41
aa(lp42
S'loss1/top-5'
p43
ag0
(g21
g22
(S'Accuracy'
p44
(lp45
F0.9375
aF0.1875
aF1.0
aF0.9375
aF0.291667
aF0.1875
aF1.0
aF0.979167
aF0.875
aF0.916667
aF0.9375
aF0.9375
aF0.958333
aF0.979167
aF0.958333
aF0.958333
aF0.9375
aF0.25
aF0.958333
aF1.0
aF0.958333
aF0.958333
aF0.979167
aF1.0
aF0.9375
aF0.9375
aF0.958333
aF0.9375
aF0.979167
aF0.9375
aF0.958333
aF0.9375
aF0.979167
aF0.895833
aF0.916667
aF0.958333
aF0.916667
aF0.291667
aF0.916667
aF0.979167
aF0.958333
aF0.958333
aF0.895833
aF0.958333
aF0.875
aF0.958333
aF1.0
aF0.9375
aF0.958333
aF0.895833
aF0.895833
aF0.979167
aF0.958333
aF0.895833
aF0.979167
aF0.9375
aF0.895833
aF0.916667
aF0.895833
aF0.958333
aF0.958333
aF0.958333
aF0.208333
aF0.979167
aF0.979167
aF1.0
aF0.9375
aF0.895833
aF0.958333
aF0.916667
aF0.958333
aF0.979167
aF0.9375
aF0.9375
aF0.9375
aF0.979167
aF1.0
aF1.0
aF0.979167
aF0.916667
aF0.895833
aF0.125
aF0.875
aF0.958333
aF0.979167
aF0.9375
aF0.895833
aF0.958333
aF0.958333
aF0.916667
aF0.916667
aF0.979167
aF0.9375
aF0.979167
aF0.958333
aF0.9375
aF0.9375
aF0.875
aF0.9375
aF0.9375
aF0.875
aF1.0
aF0.958333
aF0.9375
aF0.979167
aF0.979167
aF0.979167
aF0.958333
aF0.916667
aF0.979167
aF0.166667
aF0.9375
aF0.9375
aF0.9375
aF0.958333
aF0.979167
aF0.9375
aF0.979167
aF0.916667
aF0.416667
aF0.9375
aF0.958333
aF0.916667
aF0.916667
aF0.895833
aF0.958333
aF0.958333
aF0.25
aF0.979167
aF0.958333
aF0.979167
aF0.916667
aF0.958333
aF0.958333
aF0.979167
aF0.979167
aF0.9375
aF0.958333
aF0.958333
aF0.958333
aF0.958333
aF0.979167
aF0.958333
aF0.958333
aF0.895833
aF0.979167
aF0.958333
aF0.958333
aF0.979167
aF0.895833
aF0.916667
aF0.916667
aF0.145833
aF0.9375
aF1.0
aF0.958333
aF1.0
aF0.979167
aF0.916667
aF0.916667
aF0.9375
aF0.979167
aF1.0
aF0.916667
aF0.979167
aF0.9375
aF0.916667
aF0.9375
aF1.0
aF0.9375
aF1.0
aF0.979167
aF0.979167
aF0.958333
aF0.9375
aF0.979167
aF0.958333
aF0.958333
aF0.916667
aF0.9375
aF0.9375
aF0.9375
aF0.916667
aF0.895833
aF0.979167
aF0.9375
aF1.0
aF1.0
aF0.979167
aF0.979167
aF0.958333
aF1.0
aF0.958333
aF0.916667
aF0.979167
aF0.958333
aF0.9375
aF0.979167
aF0.958333
aF0.958333
aF0.979167
aF1.0
aF0.958333
aF0.9375
aF0.958333
aF0.958333
aF0.166667
aF0.979167
aF0.916667
aF0.979167
aF0.9375
aF1.0
aF0.979167
aF0.9375
aF0.979167
aF0.958333
aF0.958333
aF0.9375
aF0.145833
aF0.354167
aF0.958333
aF0.916667
aF0.979167
aF0.9375
aF1.0
aF0.958333
aF0.958333
aF0.9375
aF0.9375
aF1.0
aF0.916667
aF0.916667
aF0.958333
aF0.916667
aF0.979167
aF0.875
aF0.9375
aF0.979167
aF0.979167
aF0.916667
aF0.958333
aF0.958333
aF0.958333
aF0.958333
aF0.979167
aF0.354167
aF0.229167
aF1.0
aF0.958333
aF0.979167
aF0.958333
aF0.979167
aF0.958333
aF0.9375
aF0.895833
aF0.979167
aF0.979167
aF0.958333
aF0.916667
aF0.979167
aF0.979167
aF1.0
aF1.0
aF0.979167
aF0.958333
aF0.979167
aF1.0
aF0.958333
aF0.916667
aF0.979167
aF0.979167
aF0.979167
aF0.958333
aF0.9375
aF0.9375
aF1.0
aF0.979167
aF0.979167
aF0.958333
aF0.9375
aF0.958333
aF0.875
aF1.0
aF0.958333
aF0.979167
aF0.916667
aF0.958333
aF0.979167
aF0.979167
aF1.0
aF1.0
aF0.958333
aF0.916667
aF0.958333
aF0.9375
aF1.0
aF0.875
aF0.916667
aF1.0
aF0.958333
aF0.9375
aF0.916667
aF0.9375
aF0.979167
aF0.145833
aF0.875
aF0.875
aF0.25
aF0.9375
aF1.0
aF1.0
aF0.9375
aF0.9375
aF0.958333
aF0.979167
aF0.958333
aF0.208333
aF0.979167
aF0.333333
aF0.916667
aF0.916667
aF0.9375
aF0.958333
aF0.979167
aF0.229167
aF0.9375
aF0.979167
aF0.958333
aF0.958333
aF0.979167
aF1.0
aF0.958333
aF0.9375
aF0.895833
aF0.958333
aF0.875
aF0.979167
aF0.9375
aF0.916667
aF1.0
aF0.958333
aF0.979167
aF0.958333
aF0.9375
aF0.979167
aF0.979167
aF0.916667
aF1.0
aF1.0
aF0.958333
aF0.9375
aF0.3125
aF0.958333
aF0.979167
aF0.979167
aF0.958333
aF0.979167
aF0.979167
aF0.895833
aF0.979167
aF1.0
aF0.9375
aF0.958333
aF0.9375
aF0.979167
aF0.9375
aF0.9375
aF0.958333
aF0.958333
aF0.916667
aF0.9375
aF0.9375
aF0.9375
aF0.354167
aF0.895833
aF0.958333
aF0.9375
aF0.958333
aF0.958333
aF0.9375
aF0.979167
aF1.0
aF0.916667
aF0.979167
aF0.25
aF0.9375
aF0.979167
aF0.958333
aF0.958333
aF0.958333
aF0.979167
aF0.9375
aF0.9375
aF0.958333
aF0.958333
aF0.916667
aF0.958333
aF0.979167
aF0.9375
aF0.979167
aF0.979167
aF0.979167
aF0.916667
aF0.979167
aF0.958333
aF0.916667
aF1.0
aF0.916667
aF0.916667
aF0.9375
aF0.958333
aF1.0
aF1.0
aF0.916667
aF0.895833
aF0.916667
aF0.958333
aF1.0
aF0.916667
aF0.958333
aF0.958333
aF0.9375
aF0.979167
aF0.979167
aF0.958333
aF0.958333
aF0.895833
aF1.0
aF0.958333
aF0.958333
aF0.9375
aF0.979167
aF1.0
aF0.979167
aF1.0
aF0.9375
aF0.958333
aF0.916667
aF0.3125
aF0.229167
aF0.979167
aF0.979167
aF0.9375
aF0.208333
aF0.9375
aF0.895833
aF0.979167
aF0.875
aF0.9375
aF1.0
aF0.958333
aF0.979167
aF0.958333
aF0.958333
aF0.979167
aF0.979167
aF0.895833
aF0.9375
aF0.916667
aF0.9375
aF0.958333
aF0.958333
aF0.979167
aF0.9375
aF0.916667
aF0.979167
aF0.9375
aF0.958333
aF0.916667
aF0.958333
aF0.979167
aF0.979167
aF0.9375
aF0.9375
aF0.958333
aF0.979167
aF0.979167
aF0.958333
aF0.916667
aF0.979167
aF0.979167
aF0.895833
aF1.0
aF0.979167
aF0.979167
aF0.895833
aF0.958333
aF0.979167
aF1.0
aF0.979167
aF0.9375
aF0.979167
aF0.9375
aF0.895833
aF0.9375
aF0.916667
aF0.270833
aF0.958333
aF0.916667
aF0.958333
aF0.979167
aF0.979167
aF1.0
aF0.958333
aF0.958333
aF0.958333
aF0.979167
aF0.958333
aF0.958333
aF0.958333
aF1.0
aF0.979167
aF0.9375
aF0.979167
aF0.875
aF1.0
aF0.916667
aF0.958333
aF0.979167
aF0.9375
aF0.958333
aF0.958333
aF0.895833
aF0.958333
aF0.958333
aF0.979167
aF0.958333
aF0.895833
aF1.0
aF0.9375
aF0.958333
aF0.875
aF0.958333
aF0.958333
aF0.9375
aF0.979167
aF0.958333
aF0.958333
aF0.958333
aF0.958333
aF1.0
aF0.208333
aF0.979167
aF1.0
aF0.958333
aF0.9375
aF0.979167
aF0.958333
aF1.0
aF0.229167
aF1.0
aF0.9375
aF0.958333
aF1.0
aF0.958333
aF0.958333
aF0.958333
aF0.875
aF0.979167
aF1.0
aF0.3125
aF1.0
aF1.0
aF0.916667
aF0.3125
aF0.958333
aF0.895833
aF0.958333
aF0.979167
aF0.916667
aF0.958333
aF1.0
aF0.9375
aF0.958333
aF0.958333
aF0.958333
aF0.9375
aF1.0
aF0.895833
aF0.916667
aF0.916667
aF0.895833
aF0.958333
aF0.979167
aF0.916667
aF0.916667
aF1.0
aF0.916667
aF0.916667
aF0.9375
aF0.979167
aF0.9375
aF0.979167
aF0.958333
aF0.958333
aF0.9375
aF0.229167
aF0.979167
aF0.958333
aF1.0
aF0.916667
aF0.9375
aF0.208333
aF0.333333
aF0.979167
aF1.0
aF0.958333
aF1.0
aF0.9375
aF0.916667
aF0.916667
aF0.958333
aF0.958333
aF0.958333
aF0.9375
aF0.958333
aF0.958333
aF0.9375
aF0.958333
aF0.9375
aF0.875
aF1.0
aF0.958333
aF0.958333
aF0.895833
aF0.9375
aF0.958333
aF0.979167
aF0.9375
aF0.9375
aF0.916667
aF0.958333
aF0.9375
aF0.9375
aF0.958333
aF0.916667
aF0.9375
aF0.895833
aF0.958333
aF0.958333
aF0.916667
aF0.958333
aF0.9375
aF0.958333
aF0.958333
aF0.916667
aF0.979167
aF0.979167
aF0.958333
aF0.979167
aF0.895833
aF0.9375
aF0.916667
aF0.9375
aF0.979167
aF0.979167
aF0.916667
aF0.958333
aF0.979167
aF0.9375
aF1.0
aF0.979167
aF0.979167
aF0.958333
aF0.958333
aF0.895833
aF0.208333
aF0.979167
aF0.9375
aF0.9375
aF0.958333
aF0.958333
aF0.958333
aF0.9375
aF0.9375
aF0.979167
aF0.916667
aF0.875
aF0.9375
aF0.9375
aF0.9375
aF0.958333
aF0.958333
aF0.979167
aF0.979167
aF0.979167
aF0.9375
aF0.958333
aF0.958333
aF0.166667
aF0.979167
aF0.895833
aF0.916667
aF1.0
aF0.979167
aF0.958333
aF0.979167
aF1.0
aF1.0
aF0.958333
aF0.979167
aF0.958333
aF0.9375
aF0.9375
aF0.916667
aF0.979167
aF1.0
aF0.979167
aF1.0
aF0.916667
aF0.979167
aF0.958333
aF0.895833
aF0.958333
aF1.0
aF0.958333
aF0.895833
aF0.958333
aF0.9375
aF0.875
aF1.0
aF0.916667
aF0.979167
aF0.979167
aF0.958333
aF0.9375
aF0.916667
aF0.958333
aF0.958333
aF0.958333
aF0.9375
aF0.958333
aF0.979167
aF0.9375
aF0.979167
aF0.9375
aF1.0
aF0.958333
aF0.9375
aF0.958333
aF0.958333
aF1.0
aF0.958333
aF0.979167
aF0.9375
aF1.0
aF0.979167
aF0.979167
aF0.9375
aF0.979167
aF0.9375
aF0.895833
aF0.9375
aF0.958333
aF0.958333
aF0.979167
aF1.0
aF0.3125
aF0.291667
aF0.979167
aF0.979167
aF0.979167
aF0.979167
aF0.25
aF0.9375
aF0.979167
aF0.979167
aF0.979167
aF0.9375
aF0.916667
aF0.958333
aF0.916667
aF0.958333
aF0.916667
aF0.958333
aF0.9375
aF0.833333
aF0.916667
aF0.958333
aF0.958333
aF0.958333
aF0.875
aF0.979167
aF0.9375
aF0.9375
aF0.979167
aF0.9375
aF0.9375
aF0.979167
aF0.979167
aF0.9375
aF0.979167
aF0.229167
aF0.958333
aF0.895833
aF0.958333
aF0.395833
aF0.229167
aF1.0
aF0.9375
aF0.958333
aF0.958333
aF0.979167
aF0.979167
aF0.979167
aF0.958333
aF0.958333
aF0.958333
aF0.979167
atp46
tp47
Rp48
aa(lp49
S'loss2/loss1'
p50
ag0
(g21
g22
(S'SoftmaxWithLoss'
p51
(lp52
F1.4144
aF11.4115
aF0.707455
aF1.05854
aF8.17177
aF11.2938
aF1.30307
aF0.73814
aF1.20819
aF1.36989
aF0.995194
aF0.899383
aF1.19313
aF0.655745
aF0.96405
aF1.22193
aF1.64258
aF13.2634
aF1.21432
aF1.00428
aF1.43749
aF1.01354
aF1.35977
aF1.01167
aF1.15153
aF1.43847
aF1.29343
aF1.48694
aF1.18945
aF1.18005
aF1.19013
aF1.3075
aF1.26636
aF1.60115
aF1.22859
aF1.15507
aF1.26961
aF7.75216
aF1.51421
aF1.37096
aF0.861887
aF1.32538
aF1.35147
aF0.940273
aF1.4208
aF1.14874
aF1.29277
aF1.44963
aF1.09529
aF1.47173
aF1.34257
aF1.36789
aF1.0349
aF1.32282
aF0.958674
aF1.30007
aF1.07481
aF1.28965
aF1.32348
aF1.02114
aF1.08751
aF1.1886
aF9.48607
aF1.63108
aF1.21405
aF1.05308
aF0.958839
aF1.37704
aF0.901127
aF1.41046
aF1.16404
aF1.0865
aF1.13277
aF1.46652
aF1.11787
aF1.38861
aF0.686058
aF0.71273
aF0.871574
aF0.877706
aF1.0814
aF12.605
aF1.16376
aF1.06287
aF1.24348
aF1.39657
aF1.30312
aF1.08672
aF1.1848
aF0.772153
aF1.02937
aF1.33071
aF0.731026
aF1.41653
aF1.32989
aF1.13474
aF1.1538
aF1.24466
aF0.908544
aF1.38615
aF1.2668
aF0.902314
aF1.3826
aF1.0297
aF0.896729
aF1.02291
aF1.287
aF1.0655
aF1.14545
aF0.880741
aF11.2291
aF1.46251
aF0.930612
aF1.14382
aF0.708619
aF1.544
aF1.54806
aF1.17234
aF1.23353
aF8.71075
aF1.08311
aF0.930395
aF0.886762
aF1.38194
aF1.26551
aF0.704606
aF1.24133
aF8.1661
aF1.01955
aF1.26388
aF1.35842
aF1.33388
aF1.26309
aF1.20208
aF1.11909
aF1.19141
aF1.36338
aF0.946093
aF1.17781
aF1.17049
aF1.07384
aF1.11805
aF1.36866
aF1.39513
aF0.875613
aF0.886314
aF0.895481
aF1.23827
aF0.789409
aF1.07244
aF0.93082
aF1.01628
aF12.9407
aF0.952963
aF1.451
aF1.03845
aF1.02266
aF0.843425
aF1.0751
aF1.66032
aF1.31735
aF0.558903
aF1.35616
aF1.25751
aF1.46966
aF1.51149
aF0.950039
aF1.16007
aF1.06427
aF1.22939
aF1.03025
aF1.01412
aF0.784215
aF1.22585
aF0.969529
aF0.759481
aF0.694638
aF1.29855
aF1.2992
aF1.57097
aF1.00834
aF1.25599
aF0.867439
aF1.4496
aF1.0667
aF1.20029
aF1.14932
aF0.954092
aF0.760569
aF1.24747
aF1.43107
aF0.94183
aF1.62285
aF0.942376
aF1.01706
aF0.785398
aF0.829039
aF0.814443
aF1.12312
aF1.20125
aF1.0517
aF1.05038
aF1.41335
aF1.12398
aF1.137
aF0.798898
aF11.5016
aF0.701871
aF1.17142
aF0.947879
aF1.20622
aF1.22872
aF1.03685
aF0.935338
aF0.73769
aF0.916283
aF1.30603
aF1.07856
aF11.1802
aF10.5187
aF1.0772
aF1.05807
aF0.781798
aF1.03423
aF0.801494
aF0.827108
aF0.922397
aF0.946594
aF1.45078
aF0.562028
aF0.986759
aF1.65367
aF1.09069
aF1.17411
aF0.992454
aF1.60553
aF1.32922
aF0.897293
aF1.07383
aF1.2251
aF0.817642
aF1.20918
aF1.18513
aF1.07023
aF0.739498
aF6.28822
aF6.64993
aF1.58815
aF1.1432
aF0.754703
aF0.898791
aF0.804989
aF1.13218
aF1.01734
aF0.852604
aF0.847887
aF0.868828
aF1.04985
aF1.36776
aF0.959227
aF0.794253
aF1.12527
aF0.914536
aF0.690826
aF1.25067
aF1.07379
aF0.829647
aF1.28441
aF1.16875
aF1.19479
aF0.835913
aF1.11965
aF1.21806
aF1.25496
aF1.25616
aF0.554
aF1.07935
aF1.11573
aF1.35449
aF1.63162
aF1.36351
aF1.30872
aF1.27101
aF1.14639
aF0.98463
aF0.814222
aF1.07605
aF1.32909
aF0.995817
aF0.93376
aF1.00198
aF1.40728
aF0.971545
aF1.01719
aF1.0273
aF0.814233
aF1.24979
aF1.20032
aF0.795521
aF1.25877
aF1.3078
aF1.28573
aF1.24566
aF0.994329
aF7.53679
aF1.5661
aF1.6208
aF7.566
aF1.45399
aF1.25172
aF0.950233
aF1.32661
aF1.48052
aF1.18542
aF0.809964
aF1.11088
aF9.6992
aF1.04794
aF8.1799
aF1.03764
aF1.39623
aF1.07404
aF1.7828
aF1.18237
aF9.96442
aF1.07227
aF1.02094
aF0.802753
aF0.96952
aF0.848517
aF0.873426
aF1.37028
aF1.49583
aF1.43424
aF1.41674
aF1.19782
aF0.972535
aF1.09238
aF1.35406
aF1.16089
aF1.41341
aF1.02542
aF1.31844
aF0.99576
aF1.4997
aF0.921345
aF1.50936
aF1.05449
aF0.768135
aF1.10728
aF1.19435
aF11.0797
aF1.26336
aF1.3763
aF0.74748
aF0.996088
aF0.727801
aF1.06945
aF1.13455
aF0.931211
aF0.820646
aF0.923895
aF1.068
aF0.981525
aF0.884024
aF1.44589
aF1.30582
aF1.23224
aF0.940939
aF1.32603
aF0.881915
aF0.965934
aF1.10082
aF6.15447
aF1.98938
aF1.14861
aF1.25959
aF0.90732
aF1.06532
aF1.30069
aF0.560416
aF0.995991
aF1.26532
aF1.09162
aF10.3044
aF1.19981
aF0.930427
aF0.706755
aF1.15343
aF1.10052
aF0.82561
aF1.40655
aF1.23406
aF1.04541
aF0.992473
aF1.29425
aF0.91672
aF0.701421
aF1.00616
aF0.668657
aF0.959758
aF1.22698
aF1.1654
aF1.054
aF1.20895
aF1.17821
aF0.947615
aF1.29618
aF0.889824
aF1.15541
aF0.824877
aF0.811114
aF1.23829
aF1.40336
aF1.33797
aF1.55057
aF1.17157
aF0.83533
aF1.08462
aF1.05373
aF0.794006
aF0.874197
aF1.22016
aF0.879721
aF1.25122
aF0.985454
aF0.918287
aF1.04159
aF1.1575
aF0.900483
aF1.1641
aF0.850479
aF1.05109
aF1.04066
aF1.13051
aF1.02293
aF1.11994
aF1.10699
aF10.1005
aF11.0007
aF1.1926
aF0.794948
aF1.03795
aF9.78529
aF1.0055
aF1.68222
aF1.0103
aF1.25081
aF1.04607
aF1.15673
aF1.31197
aF1.31409
aF0.903668
aF1.11338
aF1.42317
aF0.851206
aF1.20495
aF1.33209
aF0.984228
aF1.12014
aF1.03966
aF0.943156
aF1.03478
aF1.05922
aF0.863264
aF0.876824
aF1.33091
aF0.855201
aF1.10781
aF1.00117
aF0.878963
aF0.759038
aF0.949433
aF0.795582
aF1.03257
aF0.88002
aF1.22854
aF0.998531
aF1.28711
aF0.828841
aF1.2346
aF1.56529
aF1.25218
aF0.868357
aF0.850162
aF1.12245
aF0.929738
aF1.16637
aF0.978001
aF1.50449
aF0.874033
aF0.964241
aF1.12308
aF1.3829
aF1.20037
aF1.37077
aF10.6446
aF1.07985
aF1.07163
aF0.812313
aF1.01894
aF0.847059
aF1.11725
aF1.27498
aF0.951849
aF1.33775
aF0.908513
aF0.949513
aF1.4648
aF1.25333
aF1.17793
aF0.986327
aF1.16285
aF0.893181
aF1.60048
aF0.98472
aF1.50327
aF0.915464
aF1.05928
aF1.07338
aF0.868485
aF1.60175
aF1.28397
aF1.27261
aF1.31773
aF1.04742
aF1.25384
aF1.23419
aF1.14199
aF1.1842
aF0.669857
aF1.43816
aF1.22791
aF0.984388
aF1.47241
aF1.22977
aF1.30563
aF1.14582
aF1.12199
aF1.04963
aF1.13142
aF11.2292
aF1.23732
aF0.889758
aF1.13466
aF1.3086
aF1.14861
aF0.964303
aF0.936623
aF9.98575
aF0.921214
aF1.09274
aF1.15709
aF0.760422
aF1.15296
aF0.882779
aF1.13081
aF1.18104
aF1.12384
aF0.511584
aF10.3633
aF1.34601
aF1.06278
aF1.53784
aF8.1146
aF1.25439
aF1.3066
aF1.07665
aF1.09579
aF0.881377
aF1.18117
aF1.08439
aF1.25311
aF1.08848
aF0.94929
aF1.1266
aF1.15451
aF0.926682
aF1.09458
aF1.1554
aF1.11183
aF1.16875
aF1.18938
aF1.11929
aF1.33856
aF1.06843
aF0.744666
aF1.16569
aF1.08193
aF0.992894
aF0.910883
aF1.21293
aF0.716753
aF1.07938
aF0.825289
aF1.25903
aF9.22872
aF1.25328
aF0.944579
aF0.96185
aF1.47773
aF1.63712
aF9.63915
aF8.34722
aF1.30956
aF1.32043
aF1.38719
aF0.852436
aF0.977859
aF1.36975
aF1.54057
aF0.941098
aF0.95763
aF1.01518
aF1.43379
aF1.33443
aF0.832488
aF1.03487
aF1.02255
aF1.40485
aF1.20548
aF0.377066
aF1.07682
aF0.81957
aF0.963229
aF1.23848
aF1.08417
aF1.12062
aF1.2339
aF1.12289
aF1.11239
aF0.80187
aF1.49636
aF1.25679
aF0.980155
aF1.91432
aF0.933107
aF1.01876
aF1.13417
aF1.43796
aF1.23681
aF1.198
aF1.08597
aF0.820071
aF0.835709
aF1.02323
aF0.614267
aF1.02877
aF0.836186
aF1.22277
aF0.955886
aF1.00131
aF1.14113
aF1.1425
aF1.1574
aF1.22771
aF1.27913
aF0.996266
aF1.12331
aF1.73467
aF0.765726
aF1.18733
aF0.455958
aF1.15316
aF1.23178
aF1.07292
aF7.18642
aF1.13113
aF0.936144
aF1.36179
aF1.20166
aF1.11476
aF0.534005
aF0.686404
aF1.24411
aF1.31338
aF1.11921
aF1.30338
aF1.14615
aF0.961586
aF1.15279
aF1.01765
aF1.0893
aF0.844511
aF1.0816
aF1.04603
aF1.13653
aF1.12241
aF0.820612
aF11.0682
aF1.30766
aF1.34809
aF1.26416
aF0.762534
aF0.872997
aF1.53807
aF1.1639
aF0.921398
aF0.863774
aF0.903352
aF0.81473
aF0.871455
aF0.937827
aF1.10889
aF1.18048
aF0.78783
aF0.705687
aF0.84584
aF1.16063
aF1.50373
aF0.937214
aF1.35852
aF1.24483
aF1.02222
aF0.704638
aF1.37186
aF1.19878
aF0.899904
aF0.953179
aF1.46461
aF0.890845
aF1.37644
aF1.4083
aF1.00953
aF1.11171
aF0.873864
aF1.10646
aF0.93731
aF1.2925
aF1.11641
aF1.38514
aF0.740286
aF0.984983
aF1.40805
aF1.13567
aF1.3618
aF1.09956
aF1.07484
aF1.05923
aF1.26401
aF1.08142
aF0.677473
aF0.986
aF1.18395
aF1.16415
aF0.663848
aF1.12202
aF1.00744
aF1.14837
aF0.514535
aF0.900496
aF1.21911
aF1.11724
aF0.841708
aF1.17843
aF0.871791
aF0.968163
aF8.8154
aF8.16532
aF1.12565
aF1.22664
aF1.00771
aF0.843645
aF9.1558
aF1.09411
aF1.063
aF1.04024
aF0.90466
aF0.685691
aF1.13541
aF1.07103
aF1.22859
aF0.894029
aF1.31463
aF0.960636
aF1.59997
aF1.0492
aF1.22846
aF1.33104
aF1.20439
aF1.21017
aF1.42012
aF1.29702
aF1.55817
aF1.06559
aF0.816174
aF1.19885
aF1.01845
aF0.990051
aF0.83836
aF1.50637
aF1.18041
aF9.43638
aF1.12076
aF1.68957
aF0.81064
aF8.32962
aF9.91232
aF0.739413
aF1.3344
aF1.11945
aF1.01905
aF1.1223
aF1.02545
aF0.813136
aF1.26143
aF1.18692
aF1.21026
aF1.02932
atp53
tp54
Rp55
aa(lp56
S'loss2/top-1'
p57
ag0
(g21
g22
(S'Accuracy'
p58
(lp59
F0.645833
aF0.0208333
aF0.833333
aF0.770833
aF0.0208333
aF0.0416667
aF0.729167
aF0.770833
aF0.729167
aF0.708333
aF0.791667
aF0.729167
aF0.729167
aF0.8125
aF0.791667
aF0.6875
aF0.645833
aF0.0
aF0.708333
aF0.729167
aF0.625
aF0.729167
aF0.625
aF0.8125
aF0.729167
aF0.666667
aF0.583333
aF0.625
aF0.666667
aF0.729167
aF0.75
aF0.666667
aF0.729167
aF0.6875
aF0.6875
aF0.729167
aF0.666667
aF0.0208333
aF0.645833
aF0.729167
aF0.75
aF0.708333
aF0.645833
aF0.729167
aF0.645833
aF0.6875
aF0.666667
aF0.645833
aF0.708333
aF0.625
aF0.625
aF0.645833
aF0.729167
aF0.666667
aF0.75
aF0.6875
aF0.666667
aF0.6875
aF0.645833
aF0.708333
aF0.770833
aF0.666667
aF0.0208333
aF0.625
aF0.708333
aF0.729167
aF0.75
aF0.604167
aF0.770833
aF0.625
aF0.625
aF0.6875
aF0.6875
aF0.666667
aF0.75
aF0.666667
aF0.875
aF0.791667
aF0.791667
aF0.75
aF0.791667
aF0.0
aF0.645833
aF0.791667
aF0.666667
aF0.645833
aF0.625
aF0.729167
aF0.708333
aF0.833333
aF0.729167
aF0.625
aF0.791667
aF0.604167
aF0.729167
aF0.708333
aF0.708333
aF0.604167
aF0.8125
aF0.708333
aF0.729167
aF0.708333
aF0.625
aF0.729167
aF0.75
aF0.8125
aF0.604167
aF0.75
aF0.729167
aF0.770833
aF0.0
aF0.645833
aF0.8125
aF0.708333
aF0.8125
aF0.604167
aF0.520833
aF0.6875
aF0.6875
aF0.0416667
aF0.708333
aF0.833333
aF0.75
aF0.645833
aF0.6875
aF0.854167
aF0.708333
aF0.0208333
aF0.708333
aF0.708333
aF0.666667
aF0.625
aF0.6875
aF0.666667
aF0.708333
aF0.666667
aF0.666667
aF0.729167
aF0.75
aF0.729167
aF0.708333
aF0.708333
aF0.6875
aF0.708333
aF0.75
aF0.729167
aF0.770833
aF0.6875
aF0.791667
aF0.729167
aF0.729167
aF0.75
aF0.0
aF0.729167
aF0.666667
aF0.729167
aF0.75
aF0.770833
aF0.729167
aF0.5625
aF0.625
aF0.854167
aF0.604167
aF0.625
aF0.645833
aF0.604167
aF0.6875
aF0.75
aF0.75
aF0.666667
aF0.729167
aF0.8125
aF0.8125
aF0.6875
aF0.770833
aF0.770833
aF0.791667
aF0.729167
aF0.666667
aF0.625
aF0.75
aF0.645833
aF0.770833
aF0.5625
aF0.8125
aF0.729167
aF0.729167
aF0.708333
aF0.8125
aF0.604167
aF0.666667
aF0.833333
aF0.625
aF0.729167
aF0.770833
aF0.8125
aF0.729167
aF0.75
aF0.75
aF0.666667
aF0.770833
aF0.708333
aF0.604167
aF0.6875
aF0.6875
aF0.8125
aF0.0208333
aF0.875
aF0.6875
aF0.75
aF0.666667
aF0.708333
aF0.729167
aF0.75
aF0.833333
aF0.770833
aF0.6875
aF0.666667
aF0.0
aF0.0416667
aF0.729167
aF0.729167
aF0.791667
aF0.708333
aF0.770833
aF0.770833
aF0.75
aF0.75
aF0.604167
aF0.895833
aF0.645833
aF0.583333
aF0.666667
aF0.729167
aF0.729167
aF0.625
aF0.625
aF0.666667
aF0.6875
aF0.6875
aF0.791667
aF0.75
aF0.770833
aF0.708333
aF0.791667
aF0.0416667
aF0.0416667
aF0.6875
aF0.729167
aF0.791667
aF0.75
aF0.8125
aF0.625
aF0.791667
aF0.729167
aF0.75
aF0.791667
aF0.708333
aF0.645833
aF0.770833
aF0.729167
aF0.6875
aF0.666667
aF0.8125
aF0.6875
aF0.6875
aF0.791667
aF0.6875
aF0.729167
aF0.645833
aF0.8125
aF0.6875
aF0.625
aF0.729167
aF0.708333
aF0.833333
aF0.645833
aF0.791667
aF0.729167
aF0.541667
aF0.604167
aF0.645833
aF0.625
aF0.729167
aF0.729167
aF0.8125
aF0.791667
aF0.583333
aF0.729167
aF0.708333
aF0.729167
aF0.583333
aF0.75
aF0.770833
aF0.75
aF0.75
aF0.6875
aF0.6875
aF0.75
aF0.625
aF0.5625
aF0.625
aF0.666667
aF0.708333
aF0.0208333
aF0.729167
aF0.604167
aF0.0416667
aF0.666667
aF0.770833
aF0.75
aF0.666667
aF0.625
aF0.729167
aF0.8125
aF0.75
aF0.0
aF0.708333
aF0.0625
aF0.791667
aF0.666667
aF0.8125
aF0.5
aF0.6875
aF0.0
aF0.708333
aF0.75
aF0.8125
aF0.75
aF0.791667
aF0.8125
aF0.625
aF0.625
aF0.604167
aF0.6875
aF0.6875
aF0.791667
aF0.645833
aF0.6875
aF0.708333
aF0.604167
aF0.770833
aF0.583333
aF0.6875
aF0.541667
aF0.708333
aF0.5
aF0.770833
aF0.8125
aF0.708333
aF0.791667
aF0.0416667
aF0.604167
aF0.729167
aF0.8125
aF0.6875
aF0.791667
aF0.729167
aF0.6875
aF0.791667
aF0.791667
aF0.708333
aF0.791667
aF0.8125
aF0.75
aF0.645833
aF0.625
aF0.708333
aF0.8125
aF0.729167
aF0.75
aF0.770833
aF0.708333
aF0.0416667
aF0.5625
aF0.729167
aF0.645833
aF0.729167
aF0.708333
aF0.666667
aF0.895833
aF0.604167
aF0.666667
aF0.6875
aF0.0416667
aF0.708333
aF0.770833
aF0.8125
aF0.6875
aF0.708333
aF0.75
aF0.729167
aF0.708333
aF0.791667
aF0.708333
aF0.708333
aF0.729167
aF0.75
aF0.75
aF0.791667
aF0.729167
aF0.6875
aF0.604167
aF0.75
aF0.6875
aF0.6875
aF0.75
aF0.666667
aF0.8125
aF0.666667
aF0.833333
aF0.8125
aF0.708333
aF0.625
aF0.645833
aF0.645833
aF0.6875
aF0.729167
aF0.75
aF0.75
aF0.854167
aF0.75
aF0.666667
aF0.75
aF0.6875
aF0.75
aF0.729167
aF0.770833
aF0.729167
aF0.791667
aF0.708333
aF0.8125
aF0.708333
aF0.666667
aF0.645833
aF0.729167
aF0.708333
aF0.708333
aF0.0208333
aF0.0
aF0.666667
aF0.791667
aF0.770833
aF0.0
aF0.729167
aF0.583333
aF0.8125
aF0.604167
aF0.75
aF0.708333
aF0.708333
aF0.645833
aF0.729167
aF0.708333
aF0.729167
aF0.75
aF0.708333
aF0.645833
aF0.708333
aF0.729167
aF0.708333
aF0.729167
aF0.729167
aF0.75
aF0.770833
aF0.6875
aF0.645833
aF0.75
aF0.708333
aF0.708333
aF0.770833
aF0.791667
aF0.791667
aF0.729167
aF0.645833
aF0.791667
aF0.729167
aF0.729167
aF0.666667
aF0.833333
aF0.791667
aF0.5625
aF0.6875
aF0.729167
aF0.770833
aF0.791667
aF0.770833
aF0.625
aF0.770833
aF0.583333
aF0.729167
aF0.75
aF0.75
aF0.625
aF0.645833
aF0.645833
aF0.0208333
aF0.708333
aF0.729167
aF0.791667
aF0.791667
aF0.729167
aF0.75
aF0.666667
aF0.770833
aF0.6875
aF0.729167
aF0.770833
aF0.604167
aF0.666667
aF0.666667
aF0.708333
aF0.770833
aF0.770833
aF0.666667
aF0.791667
aF0.645833
aF0.770833
aF0.791667
aF0.75
aF0.75
aF0.583333
aF0.770833
aF0.75
aF0.604167
aF0.729167
aF0.708333
aF0.708333
aF0.6875
aF0.666667
aF0.875
aF0.625
aF0.708333
aF0.770833
aF0.729167
aF0.645833
aF0.6875
aF0.6875
aF0.645833
aF0.645833
aF0.666667
aF0.0208333
aF0.625
aF0.770833
aF0.708333
aF0.666667
aF0.6875
aF0.729167
aF0.770833
aF0.0208333
aF0.729167
aF0.729167
aF0.6875
aF0.854167
aF0.6875
aF0.791667
aF0.6875
aF0.708333
aF0.708333
aF0.854167
aF0.0
aF0.666667
aF0.770833
aF0.666667
aF0.0833333
aF0.708333
aF0.6875
aF0.791667
aF0.770833
aF0.770833
aF0.75
aF0.729167
aF0.666667
aF0.791667
aF0.75
aF0.729167
aF0.6875
aF0.770833
aF0.75
aF0.75
aF0.666667
aF0.645833
aF0.645833
aF0.666667
aF0.6875
aF0.729167
aF0.791667
aF0.708333
aF0.770833
aF0.708333
aF0.708333
aF0.6875
aF0.729167
aF0.666667
aF0.833333
aF0.6875
aF0.0208333
aF0.729167
aF0.729167
aF0.75
aF0.604167
aF0.666667
aF0.0
aF0.0208333
aF0.75
aF0.666667
aF0.645833
aF0.729167
aF0.75
aF0.625
aF0.520833
aF0.770833
aF0.791667
aF0.6875
aF0.708333
aF0.645833
aF0.770833
aF0.729167
aF0.708333
aF0.625
aF0.666667
aF0.895833
aF0.729167
aF0.791667
aF0.729167
aF0.6875
aF0.666667
aF0.6875
aF0.666667
aF0.770833
aF0.708333
aF0.791667
aF0.645833
aF0.708333
aF0.770833
aF0.729167
aF0.729167
aF0.729167
aF0.708333
aF0.604167
aF0.645833
aF0.604167
aF0.666667
aF0.791667
aF0.8125
aF0.708333
aF0.8125
aF0.708333
aF0.770833
aF0.645833
aF0.770833
aF0.729167
aF0.770833
aF0.708333
aF0.770833
aF0.625
aF0.6875
aF0.770833
aF0.75
aF0.5625
aF0.791667
aF0.666667
aF0.875
aF0.729167
aF0.6875
aF0.729167
aF0.0
aF0.791667
aF0.791667
aF0.708333
aF0.729167
aF0.708333
aF0.854167
aF0.854167
aF0.729167
aF0.625
aF0.666667
aF0.6875
aF0.833333
aF0.75
aF0.729167
aF0.791667
aF0.770833
aF0.791667
aF0.729167
aF0.8125
aF0.666667
aF0.729167
aF0.770833
aF0.0208333
aF0.75
aF0.6875
aF0.645833
aF0.854167
aF0.75
aF0.604167
aF0.6875
aF0.708333
aF0.791667
aF0.770833
aF0.770833
aF0.8125
aF0.770833
aF0.75
aF0.6875
aF0.791667
aF0.8125
aF0.791667
aF0.729167
aF0.645833
aF0.708333
aF0.6875
aF0.708333
aF0.708333
aF0.833333
aF0.5625
aF0.708333
aF0.708333
aF0.770833
aF0.625
aF0.708333
aF0.625
aF0.645833
aF0.729167
aF0.729167
aF0.708333
aF0.666667
aF0.729167
aF0.666667
aF0.6875
aF0.625
aF0.8125
aF0.791667
aF0.666667
aF0.708333
aF0.625
aF0.708333
aF0.708333
aF0.729167
aF0.708333
aF0.708333
aF0.916667
aF0.6875
aF0.645833
aF0.6875
aF0.854167
aF0.708333
aF0.75
aF0.645833
aF0.895833
aF0.791667
aF0.75
aF0.75
aF0.791667
aF0.604167
aF0.770833
aF0.666667
aF0.0208333
aF0.0416667
aF0.791667
aF0.708333
aF0.75
aF0.770833
aF0.0833333
aF0.708333
aF0.729167
aF0.791667
aF0.770833
aF0.833333
aF0.6875
aF0.791667
aF0.645833
aF0.708333
aF0.645833
aF0.770833
aF0.625
aF0.6875
aF0.708333
aF0.6875
aF0.645833
aF0.708333
aF0.6875
aF0.645833
aF0.604167
aF0.6875
aF0.791667
aF0.729167
aF0.8125
aF0.75
aF0.833333
aF0.666667
aF0.708333
aF0.0416667
aF0.8125
aF0.5625
aF0.833333
aF0.0625
aF0.0
aF0.791667
aF0.6875
aF0.729167
aF0.791667
aF0.6875
aF0.6875
aF0.75
aF0.729167
aF0.75
aF0.666667
aF0.6875
atp60
tp61
Rp62
aa(lp63
S'loss2/top-5'
p64
ag0
(g21
g22
(S'Accuracy'
p65
(lp66
F0.833333
aF0.104167
aF1.0
aF0.916667
aF0.0208333
aF0.0416667
aF0.895833
aF0.958333
aF0.854167
aF0.854167
aF0.895833
aF0.916667
aF0.854167
aF0.979167
aF0.916667
aF0.895833
aF0.854167
aF0.0416667
aF0.9375
aF0.916667
aF0.875
aF0.916667
aF0.833333
aF0.895833
aF0.9375
aF0.875
aF0.916667
aF0.854167
aF0.895833
aF0.854167
aF0.895833
aF0.9375
aF0.9375
aF0.875
aF0.895833
aF0.916667
aF0.895833
aF0.104167
aF0.8125
aF0.895833
aF0.9375
aF0.854167
aF0.854167
aF0.9375
aF0.854167
aF0.916667
aF0.875
aF0.875
aF0.875
aF0.875
aF0.854167
aF0.833333
aF0.895833
aF0.833333
aF0.916667
aF0.833333
aF0.916667
aF0.875
aF0.916667
aF0.916667
aF0.895833
aF0.854167
aF0.0416667
aF0.854167
aF0.895833
aF0.895833
aF0.916667
aF0.875
aF0.958333
aF0.875
aF0.895833
aF0.9375
aF0.916667
aF0.833333
aF0.916667
aF0.854167
aF0.958333
aF1.0
aF0.916667
aF0.895833
aF0.916667
aF0.0
aF0.895833
aF0.875
aF0.875
aF0.833333
aF0.875
aF0.895833
aF0.833333
aF0.958333
aF0.895833
aF0.895833
aF0.958333
aF0.854167
aF0.833333
aF0.9375
aF0.875
aF0.895833
aF0.958333
aF0.895833
aF0.8125
aF0.958333
aF0.916667
aF0.895833
aF0.916667
aF0.9375
aF0.9375
aF0.895833
aF0.854167
aF0.958333
aF0.0208333
aF0.9375
aF0.9375
aF0.854167
aF0.9375
aF0.833333
aF0.833333
aF0.9375
aF0.9375
aF0.104167
aF0.9375
aF0.9375
aF0.958333
aF0.875
aF0.791667
aF0.958333
aF0.9375
aF0.104167
aF0.958333
aF0.875
aF0.895833
aF0.916667
aF0.895833
aF0.916667
aF0.916667
aF0.895833
aF0.895833
aF0.916667
aF0.875
aF0.895833
aF0.916667
aF0.875
aF0.833333
aF0.833333
aF0.9375
aF0.958333
aF0.958333
aF0.875
aF0.9375
aF0.895833
aF0.916667
aF0.916667
aF0.0208333
aF0.958333
aF0.791667
aF0.9375
aF0.9375
aF0.979167
aF0.875
aF0.791667
aF0.895833
aF0.979167
aF0.895833
aF0.875
aF0.854167
aF0.8125
aF0.9375
aF0.854167
aF0.875
aF0.833333
aF0.916667
aF0.958333
aF0.9375
aF0.875
aF0.916667
aF0.958333
aF0.979167
aF0.875
aF0.875
aF0.854167
aF0.9375
aF0.916667
aF0.916667
aF0.895833
aF0.916667
aF0.9375
aF0.895833
aF0.916667
aF0.9375
aF0.875
aF0.875
aF0.9375
aF0.875
aF0.9375
aF0.895833
aF0.9375
aF0.916667
aF0.958333
aF0.895833
aF0.875
aF0.875
aF0.916667
aF0.916667
aF0.875
aF0.895833
aF0.916667
aF0.0833333
aF0.9375
aF0.895833
aF0.9375
aF0.895833
aF0.9375
aF0.916667
aF0.895833
aF0.979167
aF0.958333
aF0.875
aF0.916667
aF0.0208333
aF0.104167
aF0.979167
aF0.895833
aF0.979167
aF0.895833
aF0.958333
aF0.9375
aF0.958333
aF0.854167
aF0.875
aF0.979167
aF0.9375
aF0.791667
aF0.916667
aF0.895833
aF0.916667
aF0.791667
aF0.854167
aF0.9375
aF0.9375
aF0.875
aF0.9375
aF0.916667
aF0.895833
aF0.895833
aF0.958333
aF0.145833
aF0.166667
aF0.854167
aF0.916667
aF0.979167
aF0.9375
aF0.958333
aF0.916667
aF0.916667
aF0.9375
aF0.916667
aF0.958333
aF0.979167
aF0.854167
aF0.9375
aF0.9375
aF0.916667
aF0.958333
aF0.958333
aF0.854167
aF0.9375
aF0.958333
aF0.895833
aF0.916667
aF0.916667
aF0.979167
aF0.895833
aF0.895833
aF0.895833
aF0.916667
aF0.979167
aF0.916667
aF0.895833
aF0.854167
aF0.8125
aF0.875
aF0.854167
aF0.895833
aF0.854167
aF0.895833
aF0.916667
aF0.9375
aF0.854167
aF0.916667
aF0.958333
aF0.9375
aF0.875
aF0.958333
aF0.916667
aF0.9375
aF0.958333
aF0.875
aF0.9375
aF0.958333
aF0.895833
aF0.895833
aF0.895833
aF0.916667
aF0.9375
aF0.104167
aF0.833333
aF0.791667
aF0.0625
aF0.895833
aF0.875
aF0.916667
aF0.875
aF0.854167
aF0.916667
aF0.958333
aF0.916667
aF0.0416667
aF0.916667
aF0.166667
aF0.916667
aF0.875
aF0.895833
aF0.8125
aF0.895833
aF0.125
aF0.916667
aF0.916667
aF0.9375
aF0.895833
aF0.9375
aF0.895833
aF0.833333
aF0.875
aF0.8125
aF0.854167
aF0.895833
aF0.916667
aF0.895833
aF0.875
aF0.916667
aF0.875
aF0.916667
aF0.895833
aF0.916667
aF0.916667
aF0.916667
aF0.875
aF0.916667
aF0.916667
aF0.916667
aF0.875
aF0.0833333
aF0.854167
aF0.833333
aF0.979167
aF0.958333
aF0.9375
aF0.875
aF0.958333
aF0.9375
aF0.895833
aF0.9375
aF0.895833
aF0.875
aF0.895833
aF0.791667
aF0.895833
aF0.916667
aF0.875
aF0.854167
aF0.958333
aF0.895833
aF0.958333
aF0.125
aF0.8125
aF0.916667
aF0.9375
aF0.9375
aF0.916667
aF0.875
aF0.979167
aF0.9375
aF0.854167
aF0.895833
aF0.0833333
aF0.895833
aF0.958333
aF0.979167
aF0.916667
aF0.958333
aF0.9375
aF0.8125
aF0.875
aF0.9375
aF0.9375
aF0.854167
aF0.958333
aF0.958333
aF0.916667
aF0.958333
aF0.9375
aF0.9375
aF0.916667
aF0.958333
aF0.875
aF0.9375
aF0.958333
aF0.833333
aF0.895833
aF0.916667
aF0.958333
aF0.979167
aF0.875
aF0.833333
aF0.895833
aF0.854167
aF0.875
aF0.9375
aF0.895833
aF0.916667
aF0.916667
aF0.895833
aF0.875
aF0.958333
aF0.875
aF0.895833
aF0.979167
aF0.916667
aF0.916667
aF0.916667
aF0.9375
aF0.9375
aF0.895833
aF0.9375
aF0.916667
aF0.875
aF0.895833
aF0.916667
aF0.125
aF0.0208333
aF0.916667
aF0.979167
aF0.895833
aF0.0833333
aF0.9375
aF0.8125
aF0.916667
aF0.875
aF0.9375
aF0.895833
aF0.895833
aF0.875
aF0.895833
aF0.895833
aF0.791667
aF0.958333
aF0.916667
aF0.9375
aF0.916667
aF0.916667
aF0.9375
aF0.958333
aF0.895833
aF0.895833
aF0.9375
aF0.958333
aF0.854167
aF0.958333
aF0.895833
aF0.895833
aF0.916667
aF0.958333
aF0.9375
aF0.958333
aF0.9375
aF0.9375
aF0.875
aF0.916667
aF0.875
aF0.916667
aF0.875
aF0.875
aF0.875
aF0.958333
aF0.9375
aF0.9375
aF0.916667
aF0.854167
aF0.916667
aF0.833333
aF0.9375
aF0.916667
aF0.895833
aF0.854167
aF0.895833
aF0.8125
aF0.0833333
aF0.9375
aF0.9375
aF0.979167
aF0.895833
aF0.958333
aF0.9375
aF0.9375
aF0.895833
aF0.854167
aF0.9375
aF0.958333
aF0.833333
aF0.854167
aF0.916667
aF0.916667
aF0.916667
aF0.958333
aF0.8125
aF0.958333
aF0.833333
aF0.958333
aF0.895833
aF0.916667
aF0.958333
aF0.854167
aF0.875
aF0.958333
aF0.875
aF0.895833
aF0.895833
aF0.916667
aF0.895833
aF0.916667
aF0.916667
aF0.854167
aF0.875
aF0.9375
aF0.854167
aF0.854167
aF0.875
aF0.895833
aF0.916667
aF0.958333
aF0.9375
aF0.0833333
aF0.875
aF0.979167
aF0.9375
aF0.854167
aF0.9375
aF0.9375
aF0.916667
aF0.0416667
aF0.979167
aF0.916667
aF0.875
aF0.979167
aF0.833333
aF0.958333
aF0.916667
aF0.916667
aF0.916667
aF0.979167
aF0.0208333
aF0.833333
aF0.916667
aF0.854167
aF0.104167
aF0.916667
aF0.875
aF0.854167
aF0.895833
aF0.9375
aF0.854167
aF0.916667
aF0.875
aF0.9375
aF0.9375
aF0.916667
aF0.9375
aF0.916667
aF0.916667
aF0.9375
aF0.854167
aF0.895833
aF0.895833
aF0.895833
aF0.854167
aF0.958333
aF0.9375
aF0.895833
aF0.895833
aF0.9375
aF0.958333
aF0.875
aF0.979167
aF0.895833
aF0.9375
aF0.854167
aF0.0833333
aF0.854167
aF0.9375
aF0.958333
aF0.916667
aF0.8125
aF0.0625
aF0.0416667
aF0.895833
aF0.895833
aF0.875
aF0.958333
aF0.916667
aF0.875
aF0.895833
aF0.916667
aF0.958333
aF0.979167
aF0.854167
aF0.916667
aF0.9375
aF0.916667
aF0.979167
aF0.854167
aF0.916667
aF0.979167
aF0.916667
aF0.9375
aF0.916667
aF0.895833
aF0.9375
aF0.916667
aF0.854167
aF0.916667
aF0.895833
aF0.979167
aF0.875
aF0.854167
aF0.9375
aF0.833333
aF0.916667
aF0.9375
aF0.895833
aF0.854167
aF0.895833
aF0.895833
aF0.895833
aF0.9375
aF0.9375
aF0.958333
aF1.0
aF0.895833
aF0.916667
aF0.875
aF0.9375
aF0.895833
aF0.916667
aF0.875
aF0.875
aF0.833333
aF0.958333
aF0.916667
aF0.895833
aF0.791667
aF0.958333
aF0.9375
aF1.0
aF0.895833
aF0.875
aF0.916667
aF0.125
aF0.916667
aF0.9375
aF0.8125
aF0.895833
aF0.875
aF0.979167
aF0.9375
aF0.9375
aF0.916667
aF0.916667
aF0.916667
aF0.895833
aF0.9375
aF0.854167
aF0.916667
aF0.958333
aF0.916667
aF0.916667
aF0.875
aF0.895833
aF0.9375
aF0.9375
aF0.0208333
aF0.854167
aF0.875
aF0.895833
aF0.958333
aF0.979167
aF0.854167
aF0.916667
aF0.9375
aF0.958333
aF0.916667
aF0.9375
aF0.916667
aF0.9375
aF0.895833
aF0.916667
aF0.958333
aF0.958333
aF0.9375
aF0.895833
aF0.833333
aF0.958333
aF0.854167
aF0.9375
aF0.958333
aF0.958333
aF0.875
aF0.875
aF0.958333
aF0.916667
aF0.854167
aF0.9375
aF0.833333
aF0.833333
aF0.916667
aF0.895833
aF1.0
aF0.875
aF0.916667
aF0.854167
aF0.916667
aF0.833333
aF0.979167
aF0.895833
aF0.875
aF0.9375
aF0.854167
aF0.895833
aF0.895833
aF0.9375
aF0.895833
aF0.916667
aF0.979167
aF0.916667
aF0.916667
aF0.875
aF0.958333
aF0.895833
aF0.916667
aF0.895833
aF0.979167
aF0.9375
aF0.875
aF0.916667
aF0.895833
aF0.979167
aF0.958333
aF0.958333
aF0.0833333
aF0.104167
aF0.916667
aF0.916667
aF0.895833
aF0.958333
aF0.104167
aF0.9375
aF0.895833
aF0.875
aF0.895833
aF0.9375
aF0.875
aF0.958333
aF0.895833
aF0.9375
aF0.895833
aF0.9375
aF0.875
aF0.895833
aF0.854167
aF0.854167
aF0.875
aF0.895833
aF0.916667
aF0.916667
aF0.875
aF0.875
aF0.958333
aF0.875
aF0.916667
aF0.895833
aF0.916667
aF0.854167
aF0.895833
aF0.0833333
aF0.9375
aF0.8125
aF0.958333
aF0.104167
aF0.0
aF0.958333
aF0.875
aF0.895833
aF0.895833
aF0.916667
aF0.916667
aF0.979167
aF0.916667
aF0.854167
aF0.916667
aF0.958333
atp67
tp68
Rp69
aa(lp70
S'loss3/loss3'
p71
ag0
(g21
g22
(S'SoftmaxWithLoss'
p72
(lp73
F1.28273
aF15.284
aF0.673189
aF0.954506
aF8.86424
aF14.0076
aF1.0903
aF0.758586
aF1.40374
aF0.948741
aF0.847522
aF1.052
aF1.11773
aF0.793355
aF0.7777
aF0.816177
aF1.3321
aF16.3782
aF1.23595
aF0.954748
aF1.02102
aF0.956607
aF1.15869
aF1.11061
aF0.974948
aF1.3142
aF1.09533
aF1.26619
aF1.35743
aF1.4419
aF1.39233
aF1.19461
aF1.30585
aF1.58863
aF1.26953
aF0.959164
aF1.18269
aF9.338
aF1.23717
aF0.919655
aF0.764517
aF0.959066
aF1.34128
aF0.811889
aF1.49679
aF0.833057
aF1.28318
aF1.46456
aF1.10764
aF1.34521
aF1.26069
aF1.24094
aF0.750396
aF1.36658
aF0.989505
aF1.29125
aF0.940023
aF1.13482
aF1.30527
aF0.952204
aF1.03339
aF1.24538
aF10.5687
aF1.42334
aF1.06134
aF1.0767
aF1.09336
aF1.35306
aF1.14917
aF1.13308
aF1.00482
aF0.927945
aF1.0511
aF1.07735
aF1.08534
aF1.05437
aF0.711433
aF0.763829
aF0.690488
aF1.11765
aF1.15161
aF15.682
aF1.09751
aF1.23225
aF1.08428
aF1.15571
aF1.1857
aF0.769617
aF0.902577
aF0.606684
aF0.804442
aF1.00197
aF0.628113
aF1.4405
aF0.858645
aF0.935693
aF1.18022
aF0.962264
aF0.945076
aF1.35893
aF1.10637
aF0.630405
aF0.93598
aF0.904068
aF0.737524
aF1.04078
aF1.22605
aF1.00588
aF1.09772
aF0.862783
aF15.7639
aF1.29293
aF0.956594
aF0.886352
aF0.798902
aF1.46678
aF1.12236
aF0.980571
aF1.759
aF12.5382
aF0.919668
aF1.31806
aF1.06156
aF1.26241
aF1.08702
aF0.99429
aF1.10627
aF9.84524
aF1.0792
aF1.2125
aF1.67107
aF1.01895
aF0.810727
aF0.976836
aF0.742006
aF0.91683
aF1.02848
aF0.947736
aF1.12142
aF1.00403
aF0.903735
aF1.10457
aF0.951883
aF1.09221
aF0.76337
aF0.595183
aF0.798234
aF1.06445
aF1.15854
aF0.815864
aF1.04436
aF0.906314
aF17.0692
aF1.11702
aF1.28902
aF0.812285
aF0.818595
aF0.827486
aF1.36441
aF1.13113
aF1.36034
aF0.531146
aF1.29073
aF1.07518
aF0.813564
aF1.56289
aF0.72149
aF1.13584
aF1.00732
aF1.09485
aF0.670524
aF0.779186
aF0.829337
aF1.05526
aF1.17805
aF0.993571
aF0.561661
aF1.24806
aF1.31042
aF1.52042
aF0.860597
aF1.17902
aF1.17774
aF0.741525
aF0.949655
aF0.963722
aF1.05474
aF0.882456
aF0.681968
aF1.16158
aF0.806623
aF0.888994
aF1.42835
aF1.2995
aF1.03282
aF0.667589
aF0.873127
aF0.823859
aF0.77452
aF1.13669
aF0.761467
aF1.36014
aF1.41764
aF1.12219
aF1.07943
aF0.77098
aF15.4897
aF1.03906
aF0.946851
aF0.785526
aF1.01118
aF1.24044
aF1.05967
aF1.01985
aF1.11708
aF0.684237
aF1.37758
aF1.32197
aF14.1085
aF14.1887
aF0.961313
aF1.24548
aF0.862672
aF1.10327
aF0.607139
aF1.00701
aF0.690525
aF0.952486
aF0.954111
aF0.726368
aF0.533456
aF1.38241
aF0.801934
aF1.44109
aF0.76817
aF1.01881
aF1.15423
aF0.87743
aF0.825676
aF1.21369
aF0.68633
aF1.32284
aF1.04543
aF0.892629
aF0.748725
aF8.03974
aF8.43798
aF1.07776
aF1.09597
aF0.758435
aF0.767345
aF0.98537
aF0.962064
aF1.28509
aF1.03344
aF0.756032
aF0.993071
aF0.914954
aF1.45376
aF0.779115
aF0.94213
aF1.26502
aF0.817748
aF0.58484
aF1.4284
aF0.678755
aF0.75628
aF1.18197
aF0.880343
aF0.909225
aF0.989833
aF0.977621
aF1.07943
aF1.48095
aF1.45425
aF0.766427
aF1.13796
aF1.08399
aF1.15064
aF1.23623
aF1.10207
aF1.06916
aF1.26482
aF1.42855
aF0.814862
aF1.06824
aF1.06473
aF1.14024
aF0.864018
aF1.10174
aF1.09225
aF1.21325
aF0.917573
aF1.03511
aF1.50969
aF0.806541
aF0.912722
aF1.0304
aF1.0233
aF1.27775
aF1.22881
aF1.28057
aF1.07855
aF0.825538
aF9.81199
aF1.73725
aF1.77437
aF9.56843
aF1.43438
aF1.1988
aF1.24792
aF1.4653
aF1.18396
aF0.990817
aF1.26073
aF0.850818
aF12.9205
aF0.986278
aF11.4997
aF1.11572
aF1.56048
aF1.04103
aF1.30879
aF1.01349
aF14.2323
aF1.12346
aF0.964742
aF0.776077
aF0.955278
aF0.830497
aF1.0996
aF1.21305
aF1.13989
aF1.28948
aF1.46859
aF1.00391
aF0.864056
aF0.717566
aF1.23399
aF1.06878
aF1.31025
aF0.805418
aF1.78272
aF1.07726
aF1.21436
aF0.904831
aF1.36836
aF1.08468
aF0.819136
aF0.817344
aF0.996302
aF16.3022
aF1.03319
aF1.12651
aF0.905147
aF0.683238
aF0.842839
aF1.22328
aF1.20515
aF1.0411
aF0.793141
aF1.15075
aF0.720449
aF0.830737
aF1.07425
aF1.04143
aF0.717675
aF1.09305
aF0.951358
aF1.56854
aF0.936607
aF0.827406
aF0.734732
aF7.98258
aF2.40299
aF1.14725
aF1.22099
aF1.05673
aF0.762487
aF0.892883
aF0.824891
aF1.14564
aF1.11893
aF0.862127
aF13.4633
aF1.12412
aF0.953046
aF0.719303
aF0.961151
aF1.05606
aF0.774628
aF1.87508
aF1.3732
aF0.923879
aF1.04911
aF1.20378
aF0.684939
aF0.638548
aF0.979994
aF0.75058
aF1.11313
aF0.986741
aF1.18865
aF1.08246
aF1.60477
aF0.956364
aF1.03869
aF1.18799
aF1.05944
aF0.888782
aF0.758893
aF0.762764
aF0.879533
aF1.2049
aF1.25617
aF1.23561
aF1.25122
aF0.911459
aF0.730736
aF0.851929
aF0.852148
aF0.784008
aF0.959642
aF1.07274
aF0.995487
aF0.947682
aF0.712055
aF0.745251
aF1.28068
aF0.655542
aF1.25601
aF0.873775
aF1.17388
aF0.861405
aF0.876838
aF0.876642
aF1.1971
aF0.855557
aF14.97
aF14.834
aF0.953851
aF0.882121
aF0.837797
aF14.6406
aF0.890672
aF1.20123
aF0.775423
aF1.02039
aF0.987703
aF0.960777
aF1.03876
aF1.29966
aF0.997338
aF0.919234
aF1.27632
aF0.939586
aF1.07146
aF1.11157
aF0.881862
aF1.12326
aF0.882023
aF1.06332
aF0.827586
aF0.971862
aF0.969798
aF0.925107
aF1.22927
aF0.776563
aF1.26702
aF1.0692
aF0.958059
aF1.01695
aF1.07967
aF1.01657
aF0.736811
aF0.851403
aF1.29452
aF0.923885
aF1.17506
aF0.962056
aF1.06473
aF1.15078
aF1.01794
aF0.76417
aF0.977729
aF1.325
aF0.718324
aF0.760982
aF1.05993
aF1.00037
aF1.12146
aF0.961179
aF1.29067
aF1.11209
aF0.980027
aF1.12619
aF14.2593
aF0.776502
aF1.03513
aF0.827009
aF0.657878
aF0.918768
aF1.4449
aF1.03902
aF0.753092
aF1.39818
aF0.799015
aF0.874409
aF1.23363
aF1.04407
aF0.904779
aF0.789699
aF0.942964
aF0.949834
aF1.28017
aF1.11128
aF1.31109
aF0.905338
aF0.867362
aF1.03213
aF0.764249
aF1.19868
aF1.54088
aF1.2741
aF1.07334
aF0.964771
aF1.35065
aF0.901813
aF0.822494
aF1.00424
aF0.681119
aF1.22801
aF1.44184
aF0.701142
aF1.22439
aF1.13291
aF1.23732
aF0.744546
aF1.11026
aF0.884637
aF0.900497
aF14.1428
aF1.04652
aF0.773736
aF0.949587
aF1.00673
aF0.948166
aF0.6497
aF1.01431
aF12.843
aF0.819967
aF0.813095
aF1.03818
aF0.771204
aF0.853984
aF0.695649
aF1.17675
aF1.12708
aF1.10604
aF0.508275
aF13.4891
aF1.06184
aF0.79674
aF1.2372
aF11.9908
aF1.08507
aF1.46231
aF1.29414
aF1.11404
aF1.23393
aF1.02541
aF0.918885
aF1.22051
aF1.21386
aF0.767993
aF1.07127
aF0.845674
aF0.9943
aF1.04871
aF1.33171
aF1.20425
aF0.8375
aF1.04712
aF0.925571
aF1.06532
aF0.813077
aF0.700397
aF1.26205
aF0.652113
aF1.09236
aF0.803521
aF0.710206
aF0.787144
aF1.22476
aF0.893144
aF0.903386
aF11.337
aF1.4278
aF1.24155
aF0.984381
aF1.36272
aF1.51328
aF11.6023
aF11.4371
aF1.11639
aF1.20339
aF1.26238
aF0.990668
aF0.878232
aF1.17884
aF1.47682
aF0.970255
aF1.04065
aF0.86665
aF1.31438
aF1.02458
aF0.676969
aF1.07499
aF0.855404
aF1.38908
aF1.44464
aF0.599153
aF0.911595
aF0.80963
aF1.02668
aF1.4171
aF1.47529
aF0.935428
aF1.03777
aF0.815427
aF0.817674
aF0.901985
aF1.11072
aF1.21713
aF0.796073
aF1.82991
aF0.735316
aF1.12678
aF0.739052
aF0.933632
aF0.838361
aF1.09093
aF1.01202
aF1.28688
aF0.730081
aF0.951984
aF0.724736
aF1.22728
aF0.996654
aF0.925484
aF0.844461
aF0.682201
aF1.0345
aF1.30561
aF1.30736
aF0.936903
aF1.25145
aF0.854649
aF1.26298
aF1.77821
aF0.894068
aF0.977272
aF0.611378
aF0.87584
aF0.907771
aF0.965475
aF8.31113
aF1.07859
aF0.910675
aF1.12967
aF1.11636
aF1.13466
aF0.506971
aF0.795768
aF0.866996
aF0.987696
aF1.02681
aF1.40359
aF0.873407
aF0.859076
aF1.22892
aF0.806102
aF1.31362
aF1.05274
aF1.21214
aF0.930255
aF0.787313
aF1.06214
aF0.86071
aF15.357
aF1.24917
aF1.4642
aF1.08503
aF0.689368
aF1.10799
aF1.45936
aF0.897079
aF0.804227
aF0.97237
aF0.883727
aF0.975784
aF0.665516
aF0.831864
aF1.12416
aF1.11193
aF0.717457
aF0.860816
aF0.8733
aF1.25236
aF1.43668
aF0.73457
aF1.19381
aF0.868269
aF0.876012
aF0.745726
aF1.04232
aF0.855238
aF0.907266
aF0.732031
aF0.996736
aF1.04207
aF1.12279
aF1.14906
aF0.9962
aF1.02327
aF0.82772
aF0.828102
aF0.826523
aF1.25484
aF0.981906
aF1.10724
aF1.05255
aF0.641371
aF1.00521
aF1.06517
aF1.12977
aF0.953544
aF1.06314
aF0.93214
aF1.16667
aF0.889639
aF0.757327
aF1.02414
aF1.0571
aF0.937277
aF0.659028
aF1.02478
aF0.813844
aF0.983947
aF0.704786
aF0.669262
aF1.06142
aF1.18814
aF0.778332
aF1.21715
aF0.810123
aF0.967245
aF11.3381
aF11.1248
aF1.27623
aF1.17401
aF1.05733
aF1.07604
aF11.6865
aF1.19535
aF1.2737
aF1.2123
aF0.970062
aF0.812745
aF1.39035
aF1.2847
aF1.05028
aF0.91161
aF0.954632
aF0.88575
aF1.09782
aF0.985416
aF1.21453
aF0.871308
aF1.11859
aF1.12649
aF1.48583
aF1.08924
aF1.53511
aF1.11752
aF0.856064
aF1.09433
aF1.20345
aF1.00534
aF0.754926
aF1.33481
aF1.05099
aF12.7133
aF1.04413
aF1.44681
aF0.968156
aF11.4216
aF12.753
aF0.702477
aF1.22537
aF1.07557
aF0.922623
aF0.857321
aF1.0788
aF0.813196
aF1.30671
aF1.46435
aF0.923248
aF1.18031
atp74
tp75
Rp76
aa(lp77
S'loss3/top-1'
p78
ag0
(g21
g22
(S'Accuracy'
p79
(lp80
F0.604167
aF0.0
aF0.854167
aF0.791667
aF0.0
aF0.0
aF0.75
aF0.770833
aF0.583333
aF0.770833
aF0.708333
aF0.5625
aF0.75
aF0.8125
aF0.770833
aF0.666667
aF0.770833
aF0.0
aF0.708333
aF0.6875
aF0.6875
aF0.791667
aF0.729167
aF0.729167
aF0.770833
aF0.625
aF0.854167
aF0.604167
aF0.604167
aF0.541667
aF0.708333
aF0.645833
aF0.708333
aF0.666667
aF0.6875
aF0.791667
aF0.729167
aF0.0
aF0.6875
aF0.791667
aF0.770833
aF0.770833
aF0.666667
aF0.75
aF0.604167
aF0.770833
aF0.6875
aF0.604167
aF0.75
aF0.729167
aF0.645833
aF0.75
aF0.75
aF0.645833
aF0.708333
aF0.75
aF0.75
aF0.75
aF0.604167
aF0.770833
aF0.75
aF0.6875
aF0.0
aF0.625
aF0.75
aF0.729167
aF0.6875
aF0.666667
aF0.6875
aF0.625
aF0.729167
aF0.6875
aF0.666667
aF0.770833
aF0.625
aF0.708333
aF0.708333
aF0.833333
aF0.729167
aF0.729167
aF0.625
aF0.0
aF0.6875
aF0.770833
aF0.75
aF0.708333
aF0.708333
aF0.770833
aF0.770833
aF0.854167
aF0.75
aF0.770833
aF0.8125
aF0.666667
aF0.791667
aF0.75
aF0.6875
aF0.604167
aF0.708333
aF0.5625
aF0.708333
aF0.854167
aF0.791667
aF0.75
aF0.791667
aF0.770833
aF0.666667
aF0.75
aF0.708333
aF0.791667
aF0.0
aF0.708333
aF0.770833
aF0.75
aF0.791667
aF0.583333
aF0.625
aF0.708333
aF0.770833
aF0.0208333
aF0.708333
aF0.666667
aF0.6875
aF0.6875
aF0.75
aF0.75
aF0.625
aF0.0
aF0.75
aF0.645833
aF0.625
aF0.6875
aF0.729167
aF0.770833
aF0.729167
aF0.75
aF0.75
aF0.75
aF0.645833
aF0.75
aF0.791667
aF0.791667
aF0.770833
aF0.666667
aF0.770833
aF0.833333
aF0.791667
aF0.708333
aF0.708333
aF0.8125
aF0.6875
aF0.770833
aF0.0
aF0.791667
aF0.666667
aF0.875
aF0.75
aF0.770833
aF0.708333
aF0.729167
aF0.645833
aF0.875
aF0.708333
aF0.729167
aF0.770833
aF0.645833
aF0.791667
aF0.666667
aF0.770833
aF0.729167
aF0.8125
aF0.833333
aF0.770833
aF0.75
aF0.75
aF0.666667
aF0.875
aF0.729167
aF0.770833
aF0.6875
aF0.729167
aF0.75
aF0.666667
aF0.833333
aF0.75
aF0.791667
aF0.770833
aF0.75
aF0.791667
aF0.729167
aF0.770833
aF0.791667
aF0.6875
aF0.645833
aF0.708333
aF0.8125
aF0.708333
aF0.8125
aF0.770833
aF0.645833
aF0.8125
aF0.625
aF0.666667
aF0.770833
aF0.729167
aF0.770833
aF0.0
aF0.770833
aF0.729167
aF0.75
aF0.75
aF0.708333
aF0.6875
aF0.75
aF0.666667
aF0.833333
aF0.583333
aF0.604167
aF0.0
aF0.0
aF0.770833
aF0.645833
aF0.8125
aF0.75
aF0.854167
aF0.6875
aF0.8125
aF0.8125
aF0.875
aF0.833333
aF0.854167
aF0.6875
aF0.8125
aF0.5625
aF0.833333
aF0.75
aF0.6875
aF0.666667
aF0.666667
aF0.6875
aF0.833333
aF0.708333
aF0.708333
aF0.791667
aF0.833333
aF0.0
aF0.0
aF0.791667
aF0.8125
aF0.791667
aF0.791667
aF0.791667
aF0.8125
aF0.770833
aF0.6875
aF0.854167
aF0.729167
aF0.729167
aF0.708333
aF0.8125
aF0.729167
aF0.645833
aF0.791667
aF0.854167
aF0.604167
aF0.770833
aF0.75
aF0.770833
aF0.770833
aF0.729167
aF0.770833
aF0.75
aF0.6875
aF0.6875
aF0.666667
aF0.791667
aF0.6875
aF0.75
aF0.729167
aF0.666667
aF0.6875
aF0.8125
aF0.666667
aF0.625
aF0.729167
aF0.770833
aF0.729167
aF0.645833
aF0.770833
aF0.645833
aF0.729167
aF0.666667
aF0.8125
aF0.75
aF0.666667
aF0.729167
aF0.770833
aF0.645833
aF0.708333
aF0.645833
aF0.75
aF0.645833
aF0.75
aF0.791667
aF0.0
aF0.729167
aF0.604167
aF0.0
aF0.770833
aF0.75
aF0.645833
aF0.6875
aF0.666667
aF0.854167
aF0.729167
aF0.791667
aF0.0
aF0.770833
aF0.0
aF0.770833
aF0.604167
aF0.75
aF0.583333
aF0.729167
aF0.0
aF0.666667
aF0.770833
aF0.770833
aF0.729167
aF0.791667
aF0.75
aF0.645833
aF0.6875
aF0.729167
aF0.604167
aF0.708333
aF0.8125
aF0.8125
aF0.729167
aF0.75
aF0.791667
aF0.8125
aF0.5625
aF0.645833
aF0.708333
aF0.708333
aF0.5625
aF0.791667
aF0.729167
aF0.770833
aF0.6875
aF0.0
aF0.708333
aF0.708333
aF0.791667
aF0.833333
aF0.770833
aF0.645833
aF0.6875
aF0.6875
aF0.8125
aF0.604167
aF0.770833
aF0.770833
aF0.6875
aF0.708333
aF0.770833
aF0.708333
aF0.791667
aF0.604167
aF0.729167
aF0.833333
aF0.770833
aF0.0
aF0.708333
aF0.6875
aF0.75
aF0.708333
aF0.770833
aF0.75
aF0.791667
aF0.604167
aF0.729167
aF0.791667
aF0.0
aF0.666667
aF0.770833
aF0.75
aF0.666667
aF0.770833
aF0.833333
aF0.645833
aF0.708333
aF0.770833
aF0.75
aF0.75
aF0.8125
aF0.833333
aF0.770833
aF0.8125
aF0.708333
aF0.791667
aF0.708333
aF0.75
aF0.666667
aF0.833333
aF0.6875
aF0.729167
aF0.6875
aF0.8125
aF0.854167
aF0.791667
aF0.833333
aF0.625
aF0.6875
aF0.729167
aF0.708333
aF0.770833
aF0.875
aF0.770833
aF0.770833
aF0.8125
aF0.75
aF0.708333
aF0.770833
aF0.708333
aF0.770833
aF0.854167
aF0.6875
aF0.833333
aF0.666667
aF0.791667
aF0.6875
aF0.770833
aF0.75
aF0.729167
aF0.6875
aF0.770833
aF0.0
aF0.0
aF0.8125
aF0.791667
aF0.75
aF0.0
aF0.75
aF0.645833
aF0.8125
aF0.6875
aF0.6875
aF0.666667
aF0.729167
aF0.729167
aF0.6875
aF0.75
aF0.666667
aF0.708333
aF0.770833
aF0.75
aF0.729167
aF0.729167
aF0.791667
aF0.75
aF0.8125
aF0.8125
aF0.75
aF0.729167
aF0.666667
aF0.770833
aF0.729167
aF0.729167
aF0.75
aF0.729167
aF0.75
aF0.6875
aF0.833333
aF0.791667
aF0.708333
aF0.770833
aF0.708333
aF0.791667
aF0.791667
aF0.708333
aF0.8125
aF0.854167
aF0.729167
aF0.6875
aF0.8125
aF0.770833
aF0.6875
aF0.708333
aF0.6875
aF0.729167
aF0.75
aF0.75
aF0.770833
aF0.6875
aF0.0
aF0.8125
aF0.770833
aF0.833333
aF0.895833
aF0.8125
aF0.729167
aF0.75
aF0.770833
aF0.708333
aF0.791667
aF0.708333
aF0.75
aF0.8125
aF0.770833
aF0.75
aF0.791667
aF0.791667
aF0.645833
aF0.75
aF0.6875
aF0.8125
aF0.708333
aF0.6875
aF0.791667
aF0.729167
aF0.708333
aF0.729167
aF0.6875
aF0.75
aF0.75
aF0.6875
aF0.854167
aF0.8125
aF0.833333
aF0.645833
aF0.625
aF0.833333
aF0.729167
aF0.708333
aF0.645833
aF0.791667
aF0.770833
aF0.770833
aF0.791667
aF0.0
aF0.6875
aF0.770833
aF0.916667
aF0.791667
aF0.708333
aF0.833333
aF0.729167
aF0.0
aF0.770833
aF0.8125
aF0.645833
aF0.729167
aF0.791667
aF0.791667
aF0.791667
aF0.791667
aF0.75
aF0.854167
aF0.0
aF0.729167
aF0.833333
aF0.708333
aF0.0
aF0.770833
aF0.645833
aF0.6875
aF0.8125
aF0.75
aF0.75
aF0.8125
aF0.729167
aF0.708333
aF0.833333
aF0.75
aF0.8125
aF0.6875
aF0.729167
aF0.6875
aF0.666667
aF0.729167
aF0.729167
aF0.729167
aF0.708333
aF0.791667
aF0.791667
aF0.729167
aF0.854167
aF0.6875
aF0.6875
aF0.8125
aF0.770833
aF0.6875
aF0.8125
aF0.8125
aF0.0
aF0.666667
aF0.729167
aF0.75
aF0.645833
aF0.729167
aF0.0
aF0.0
aF0.729167
aF0.729167
aF0.6875
aF0.791667
aF0.770833
aF0.75
aF0.5625
aF0.729167
aF0.791667
aF0.791667
aF0.708333
aF0.75
aF0.791667
aF0.770833
aF0.791667
aF0.666667
aF0.645833
aF0.854167
aF0.75
aF0.75
aF0.708333
aF0.583333
aF0.645833
aF0.75
aF0.708333
aF0.729167
aF0.729167
aF0.729167
aF0.729167
aF0.75
aF0.770833
aF0.625
aF0.770833
aF0.6875
aF0.791667
aF0.75
aF0.791667
aF0.708333
aF0.729167
aF0.625
aF0.75
aF0.75
aF0.770833
aF0.75
aF0.770833
aF0.791667
aF0.75
aF0.854167
aF0.770833
aF0.6875
aF0.770833
aF0.770833
aF0.729167
aF0.8125
aF0.729167
aF0.583333
aF0.708333
aF0.729167
aF0.8125
aF0.729167
aF0.770833
aF0.729167
aF0.0208333
aF0.75
aF0.791667
aF0.708333
aF0.75
aF0.708333
aF0.895833
aF0.770833
aF0.833333
aF0.75
aF0.6875
aF0.666667
aF0.708333
aF0.708333
aF0.645833
aF0.8125
aF0.708333
aF0.645833
aF0.75
aF0.708333
aF0.729167
aF0.708333
aF0.729167
aF0.0
aF0.666667
aF0.604167
aF0.729167
aF0.791667
aF0.729167
aF0.625
aF0.708333
aF0.791667
aF0.6875
aF0.75
aF0.75
aF0.8125
aF0.770833
aF0.791667
aF0.604167
aF0.833333
aF0.8125
aF0.8125
aF0.75
aF0.625
aF0.833333
aF0.708333
aF0.770833
aF0.791667
aF0.8125
aF0.6875
aF0.791667
aF0.75
aF0.833333
aF0.770833
aF0.645833
aF0.666667
aF0.729167
aF0.75
aF0.770833
aF0.791667
aF0.8125
aF0.729167
aF0.604167
aF0.791667
aF0.6875
aF0.6875
aF0.833333
aF0.770833
aF0.770833
aF0.6875
aF0.8125
aF0.770833
aF0.666667
aF0.729167
aF0.770833
aF0.8125
aF0.729167
aF0.666667
aF0.75
aF0.75
aF0.75
aF0.8125
aF0.645833
aF0.8125
aF0.791667
aF0.708333
aF0.666667
aF0.791667
aF0.666667
aF0.833333
aF0.833333
aF0.0
aF0.0
aF0.791667
aF0.708333
aF0.791667
aF0.729167
aF0.0
aF0.625
aF0.6875
aF0.708333
aF0.770833
aF0.770833
aF0.708333
aF0.708333
aF0.75
aF0.8125
aF0.75
aF0.8125
aF0.729167
aF0.729167
aF0.666667
aF0.791667
aF0.708333
aF0.75
aF0.708333
aF0.645833
aF0.645833
aF0.75
aF0.770833
aF0.791667
aF0.729167
aF0.729167
aF0.833333
aF0.6875
aF0.729167
aF0.0208333
aF0.75
aF0.6875
aF0.729167
aF0.0
aF0.0
aF0.791667
aF0.645833
aF0.708333
aF0.8125
aF0.666667
aF0.666667
aF0.791667
aF0.645833
aF0.666667
aF0.6875
aF0.708333
atp81
tp82
Rp83
aa(lp84
S'loss3/top-5'
p85
ag0
(g21
g22
(S'Accuracy'
p86
(lp87
F0.895833
aF0.0
aF0.9375
aF0.875
aF0.0208333
aF0.0
aF0.916667
aF0.979167
aF0.895833
aF0.9375
aF0.9375
aF0.958333
aF0.875
aF0.979167
aF0.9375
aF0.958333
aF0.916667
aF0.0416667
aF0.875
aF0.979167
aF0.979167
aF0.916667
aF0.895833
aF0.916667
aF0.916667
aF0.854167
aF0.916667
aF0.9375
aF0.916667
aF0.875
aF0.916667
aF0.895833
aF0.916667
aF0.8125
aF0.916667
aF0.958333
aF0.9375
aF0.0
aF0.916667
aF0.979167
aF1.0
aF0.875
aF0.895833
aF0.9375
aF0.895833
aF0.958333
aF0.916667
aF0.854167
aF0.895833
aF0.854167
aF0.9375
aF0.854167
aF0.9375
aF0.833333
aF0.916667
aF0.916667
aF0.9375
aF0.916667
aF0.875
aF0.9375
aF0.895833
aF0.875
aF0.0208333
aF0.9375
aF0.958333
aF0.9375
aF0.895833
aF0.854167
aF0.875
aF0.875
aF0.916667
aF0.979167
aF0.9375
aF0.895833
aF0.9375
aF0.916667
aF0.979167
aF1.0
aF0.958333
aF0.895833
aF0.916667
aF0.0
aF0.895833
aF0.895833
aF0.916667
aF0.895833
aF0.875
aF1.0
aF0.9375
aF0.979167
aF0.9375
aF0.895833
aF0.958333
aF0.854167
aF0.895833
aF0.9375
aF0.895833
aF0.979167
aF0.9375
aF0.9375
aF0.895833
aF0.9375
aF0.895833
aF0.916667
aF0.958333
aF0.958333
aF0.916667
aF0.9375
aF0.9375
aF0.958333
aF0.0
aF0.895833
aF0.895833
aF0.958333
aF0.958333
aF0.875
aF0.916667
aF0.895833
aF0.895833
aF0.0208333
aF1.0
aF0.895833
aF0.895833
aF0.875
aF0.895833
aF0.916667
aF0.916667
aF0.0
aF0.9375
aF0.895833
aF0.895833
aF0.9375
aF0.9375
aF0.958333
aF0.9375
aF0.958333
aF0.916667
aF0.895833
aF0.916667
aF0.916667
aF0.916667
aF0.916667
aF0.9375
aF0.916667
aF0.958333
aF0.958333
aF1.0
aF0.9375
aF0.875
aF0.9375
aF0.916667
aF0.916667
aF0.0
aF0.916667
aF0.895833
aF0.958333
aF0.9375
aF0.916667
aF0.854167
aF0.895833
aF0.875
aF1.0
aF0.895833
aF0.895833
aF0.958333
aF0.770833
aF0.979167
aF0.916667
aF0.9375
aF0.854167
aF0.979167
aF0.9375
aF0.9375
aF0.916667
aF0.916667
aF0.9375
aF1.0
aF0.916667
aF0.875
aF0.833333
aF0.9375
aF0.833333
aF0.895833
aF0.916667
aF0.9375
aF0.916667
aF0.916667
aF0.958333
aF0.958333
aF0.916667
aF0.958333
aF0.958333
aF0.895833
aF0.8125
aF0.895833
aF0.979167
aF0.9375
aF0.916667
aF0.958333
aF0.9375
aF0.979167
aF0.833333
aF0.833333
aF0.895833
aF0.916667
aF0.9375
aF0.0
aF0.916667
aF0.916667
aF0.958333
aF0.916667
aF0.9375
aF0.9375
aF0.916667
aF0.895833
aF0.958333
aF0.854167
aF0.833333
aF0.0
aF0.0
aF0.958333
aF0.895833
aF0.958333
aF0.895833
aF0.958333
aF0.958333
aF0.979167
aF0.916667
aF0.958333
aF0.9375
aF1.0
aF0.854167
aF0.979167
aF0.854167
aF0.9375
aF0.895833
aF0.875
aF0.979167
aF0.958333
aF0.895833
aF0.958333
aF0.916667
aF0.916667
aF0.916667
aF0.9375
aF0.0
aF0.0
aF0.916667
aF0.916667
aF0.9375
aF0.916667
aF0.875
aF0.895833
aF0.875
aF0.958333
aF0.958333
aF0.9375
aF0.958333
aF0.916667
aF0.958333
aF0.916667
aF0.916667
aF0.958333
aF0.979167
aF0.875
aF0.979167
aF0.916667
aF0.875
aF0.9375
aF0.979167
aF0.958333
aF0.958333
aF0.916667
aF0.833333
aF0.875
aF0.9375
aF0.9375
aF0.9375
aF0.916667
aF0.854167
aF0.958333
aF0.916667
aF0.916667
aF0.854167
aF0.979167
aF0.895833
aF0.9375
aF0.9375
aF0.958333
aF0.958333
aF0.916667
aF0.916667
aF0.9375
aF0.9375
aF0.895833
aF0.958333
aF0.9375
aF0.9375
aF0.9375
aF0.854167
aF0.854167
aF0.916667
aF0.875
aF0.9375
aF0.0
aF0.875
aF0.833333
aF0.0
aF0.895833
aF0.916667
aF0.916667
aF0.895833
aF0.9375
aF0.916667
aF0.895833
aF0.979167
aF0.0
aF0.916667
aF0.0208333
aF0.895833
aF0.875
aF0.916667
aF0.9375
aF0.875
aF0.0
aF0.895833
aF0.875
aF0.979167
aF0.9375
aF0.979167
aF0.895833
aF0.916667
aF0.916667
aF0.875
aF0.8125
aF0.895833
aF0.916667
aF0.958333
aF0.854167
aF0.916667
aF0.895833
aF0.958333
aF0.770833
aF0.9375
aF0.916667
aF0.979167
aF0.875
aF0.916667
aF0.9375
aF0.9375
aF0.958333
aF0.0
aF0.875
aF0.875
aF0.9375
aF0.979167
aF0.9375
aF0.916667
aF0.916667
aF0.916667
aF0.958333
aF0.958333
aF0.979167
aF0.958333
aF0.875
aF0.895833
aF1.0
aF0.895833
aF0.895833
aF0.854167
aF0.895833
aF0.895833
aF0.979167
aF0.0
aF0.854167
aF0.9375
aF0.9375
aF0.916667
aF0.979167
aF0.9375
aF0.958333
aF0.9375
aF0.895833
aF0.958333
aF0.0
aF0.9375
aF0.958333
aF0.979167
aF0.958333
aF0.875
aF0.958333
aF0.875
aF0.895833
aF0.9375
aF0.916667
aF0.916667
aF1.0
aF0.979167
aF0.916667
aF0.958333
aF0.895833
aF0.916667
aF0.916667
aF0.895833
aF0.833333
aF0.895833
aF0.979167
aF0.854167
aF0.916667
aF0.958333
aF0.958333
aF0.916667
aF0.9375
aF0.895833
aF0.895833
aF0.875
aF0.9375
aF0.9375
aF0.958333
aF0.916667
aF0.9375
aF0.958333
aF0.9375
aF0.958333
aF0.916667
aF0.916667
aF0.9375
aF0.979167
aF0.875
aF0.9375
aF0.895833
aF0.9375
aF0.854167
aF0.9375
aF0.979167
aF0.916667
aF0.875
aF0.979167
aF0.0208333
aF0.0
aF0.9375
aF0.958333
aF0.9375
aF0.0
aF0.958333
aF0.916667
aF0.958333
aF0.895833
aF0.9375
aF0.9375
aF0.979167
aF0.895833
aF0.9375
aF0.958333
aF0.9375
aF0.958333
aF0.9375
aF0.895833
aF0.9375
aF0.916667
aF0.958333
aF0.9375
aF0.958333
aF0.9375
aF0.916667
aF0.916667
aF0.9375
aF0.979167
aF0.854167
aF0.9375
aF0.916667
aF0.895833
aF0.916667
aF0.916667
aF0.979167
aF0.9375
aF0.895833
aF0.9375
aF0.875
aF0.958333
aF0.895833
aF0.9375
aF0.916667
aF0.979167
aF0.9375
aF0.916667
aF0.979167
aF0.9375
aF0.895833
aF0.958333
aF0.916667
aF0.958333
aF0.895833
aF0.9375
aF0.958333
aF0.875
aF0.0
aF0.916667
aF0.916667
aF0.9375
aF0.979167
aF0.9375
aF0.958333
aF0.916667
aF0.979167
aF0.833333
aF0.979167
aF0.9375
aF0.875
aF0.9375
aF0.958333
aF0.979167
aF0.895833
aF0.895833
aF0.916667
aF0.895833
aF0.875
aF0.9375
aF0.958333
aF0.9375
aF0.9375
aF0.854167
aF0.895833
aF0.895833
aF0.979167
aF0.895833
aF0.895833
aF0.916667
aF0.958333
aF0.9375
aF0.958333
aF0.854167
aF0.854167
aF0.979167
aF0.875
aF0.916667
aF0.895833
aF0.958333
aF0.916667
aF0.958333
aF0.958333
aF0.0
aF0.9375
aF0.979167
aF0.958333
aF0.895833
aF0.979167
aF0.958333
aF0.916667
aF0.0
aF0.958333
aF0.979167
aF0.916667
aF0.958333
aF0.9375
aF0.958333
aF0.9375
aF0.916667
aF0.9375
aF1.0
aF0.0208333
aF0.9375
aF0.958333
aF0.916667
aF0.0
aF0.916667
aF0.8125
aF0.875
aF0.895833
aF0.895833
aF0.916667
aF0.9375
aF0.854167
aF0.895833
aF0.9375
aF0.916667
aF0.979167
aF0.916667
aF0.916667
aF0.895833
aF0.875
aF0.958333
aF0.9375
aF0.895833
aF0.916667
aF0.979167
aF0.979167
aF0.833333
aF0.979167
aF0.895833
aF0.979167
aF0.9375
aF0.979167
aF0.854167
aF0.958333
aF0.916667
aF0.0
aF0.9375
aF0.9375
aF0.916667
aF0.895833
aF0.854167
aF0.0
aF0.0
aF0.916667
aF0.916667
aF0.875
aF0.958333
aF0.958333
aF0.916667
aF0.895833
aF0.958333
aF0.895833
aF0.958333
aF0.9375
aF0.9375
aF1.0
aF0.916667
aF0.979167
aF0.833333
aF0.875
aF0.9375
aF0.958333
aF0.916667
aF0.9375
aF0.854167
aF0.916667
aF0.916667
aF0.916667
aF0.9375
aF0.958333
aF0.916667
aF0.916667
aF0.875
aF0.958333
aF0.833333
aF0.979167
aF0.958333
aF0.916667
aF0.875
aF0.916667
aF0.916667
aF0.916667
aF0.916667
aF0.9375
aF0.9375
aF1.0
aF0.8125
aF0.895833
aF0.9375
aF0.916667
aF0.9375
aF0.875
aF0.833333
aF0.916667
aF0.958333
aF0.895833
aF0.895833
aF0.875
aF0.854167
aF0.958333
aF0.916667
aF1.0
aF0.9375
aF0.979167
aF0.916667
aF0.0208333
aF0.895833
aF0.895833
aF0.916667
aF0.875
aF0.916667
aF0.979167
aF0.916667
aF0.9375
aF0.958333
aF0.9375
aF0.916667
aF0.9375
aF0.9375
aF0.875
aF0.958333
aF0.895833
aF0.9375
aF0.854167
aF0.958333
aF0.958333
aF0.9375
aF0.979167
aF0.0
aF0.854167
aF0.854167
aF0.9375
aF0.916667
aF0.916667
aF0.916667
aF0.979167
aF0.9375
aF0.958333
aF0.958333
aF0.9375
aF0.958333
aF0.9375
aF0.916667
aF0.9375
aF0.9375
aF0.9375
aF0.9375
aF0.875
aF0.854167
aF0.9375
aF0.895833
aF0.958333
aF0.916667
aF0.958333
aF0.916667
aF0.958333
aF0.958333
aF0.958333
aF0.916667
aF0.9375
aF0.9375
aF0.916667
aF0.895833
aF0.9375
aF0.979167
aF0.979167
aF0.895833
aF0.895833
aF0.916667
aF0.916667
aF0.916667
aF0.979167
aF0.895833
aF0.9375
aF0.895833
aF0.958333
aF0.916667
aF0.916667
aF0.916667
aF0.916667
aF0.958333
aF0.854167
aF0.916667
aF0.979167
aF0.958333
aF0.895833
aF0.9375
aF0.9375
aF0.958333
aF0.9375
aF0.916667
aF0.916667
aF0.916667
aF0.895833
aF1.0
aF1.0
aF0.0
aF0.0
aF0.9375
aF0.9375
aF0.9375
aF0.875
aF0.0208333
aF0.916667
aF0.875
aF0.916667
aF0.916667
aF0.958333
aF0.875
aF0.9375
aF0.9375
aF0.916667
aF0.9375
aF0.916667
aF0.916667
aF0.979167
aF0.9375
aF0.958333
aF0.895833
aF0.854167
aF0.895833
aF0.958333
aF0.875
aF0.916667
aF0.9375
aF0.916667
aF0.895833
aF0.958333
aF0.9375
aF0.854167
aF0.9375
aF0.0625
aF0.958333
aF0.854167
aF0.979167
aF0.0
aF0.0
aF0.979167
aF0.875
aF0.9375
aF0.895833
aF0.9375
aF0.9375
aF0.958333
aF0.958333
aF0.833333
aF0.916667
aF0.895833
atp88
tp89
Rp90
aa(lp91
S'learning_rate'
p92
ag0
(g21
g22
(S'LearningRate'
p93
(lp94
F5.7e-05
aF5.7e-05
aF5.7e-05
aF5.7e-05
aF5.7e-05
aF5.7e-05
aF5.7e-05
aF5.7e-05
aF5.7e-05
aF5.7e-05
aF5.7e-05
aF5.7e-05
aF5.7e-05
aF5.7e-05
aF5.7e-05
aF5.7e-05
aF5.7e-05
aF5.7e-05
aF5.7e-05
aF5.7e-05
aF5.7e-05
aF5.7e-05
aF5.7e-05
aF5.7e-05
aF5.7e-05
aF5.7e-05
aF5.7e-05
aF5.7e-05
aF5.7e-05
aF5.7e-05
aF5.7e-05
aF5.7e-05
aF5.7e-05
aF5.7e-05
aF5.7e-05
aF5.7e-05
aF5.7e-05
aF5.7e-05
aF5.7e-05
aF5.7e-05
aF5.7e-05
aF5.7e-05
aF5.7e-05
aF5.7e-05
aF5.7e-05
aF5.7e-05
aF5.7e-05
aF5.7e-05
aF5.7e-05
aF5.7e-05
aF5.7e-05
aF5.7e-05
aF5.7e-05
aF5.7e-05
aF5.7e-05
aF5.7e-05
aF5.7e-05
aF5.7e-05
aF5.7e-05
aF5.7e-05
aF5.7e-05
aF5.7e-05
aF5.7e-05
aF5.7e-05
aF5.7e-05
aF5.7e-05
aF5.7e-05
aF5.7e-05
aF5.7e-05
aF5.7e-05
aF5.7e-05
aF5.7e-05
aF5.7e-05
aF5.7e-05
aF5.7e-05
aF5.7e-05
aF5.7e-05
aF5.7e-05
aF5.7e-05
aF5.7e-05
aF5.7e-05
aF5.7e-05
aF5.7e-05
aF5.7e-05
aF5.7e-05
aF5.7e-05
aF5.7e-05
aF5.7e-05
aF5.7e-05
aF5.7e-05
aF5.7e-05
aF5.7e-05
aF5.7e-05
aF5.7e-05
aF5.7e-05
aF5.7e-05
aF5.7e-05
aF5.7e-05
aF5.7e-05
aF5.7e-05
aF5.7e-05
aF5.7e-05
aF5.7e-05
aF5.7e-05
aF5.7e-05
aF5.7e-05
aF5.7e-05
aF5.7e-05
aF5.7e-05
aF5.7e-05
aF5.7e-05
aF5.7e-05
aF5.7e-05
aF5.7e-05
aF5.7e-05
aF5.7e-05
aF5.7e-05
aF5.7e-05
aF5.7e-05
aF5.7e-05
aF5.7e-05
aF5.7e-05
aF5.7e-05
aF5.7e-05
aF5.7e-05
aF5.7e-05
aF5.7e-05
aF5.7e-05
aF5.7e-05
aF5.7e-05
aF5.7e-05
aF5.7e-05
aF5.7e-05
aF5.7e-05
aF5.7e-05
aF5.7e-05
aF5.7e-05
aF5.7e-05
aF5.7e-05
aF5.7e-05
aF5.7e-05
aF5.7e-05
aF5.7e-05
aF5.7e-05
aF5.7e-05
aF5.7e-05
aF5.7e-05
aF5.7e-05
aF5.7e-05
aF5.7e-05
aF5.7e-05
aF5.7e-05
aF5.7e-05
aF5.7e-05
aF5.7e-05
aF5.7e-05
aF5.7e-05
aF5.7e-05
aF5.7e-05
aF5.7e-05
aF5.7e-05
aF5.7e-05
aF5.7e-05
aF5.7e-05
aF5.7e-05
aF5.7e-05
aF5.7e-05
aF5.7e-05
aF5.7e-05
aF5.7e-05
aF5.7e-05
aF5.7e-05
aF5.7e-05
aF5.7e-05
aF5.7e-05
aF5.7e-05
aF5.7e-05
aF5.7e-05
aF5.7e-05
aF5.7e-05
aF5.7e-05
aF5.7e-05
aF5.7e-05
aF5.7e-05
aF5.7e-05
aF5.7e-05
aF5.7e-05
aF5.7e-05
aF5.7e-05
aF5.7e-05
aF5.7e-05
aF5.7e-05
aF5.7e-05
aF5.7e-05
aF5.7e-05
aF5.7e-05
aF5.7e-05
aF5.7e-05
aF5.7e-05
aF5.7e-05
aF5.7e-05
aF5.7e-05
aF5.7e-05
aF5.7e-05
aF5.7e-05
aF5.7e-05
aF5.7e-05
aF5.7e-05
aF5.7e-05
aF5.7e-05
aF5.7e-05
aF5.7e-05
aF5.7e-05
aF5.7e-05
aF5.7e-05
aF5.7e-05
aF5.7e-05
aF5.7e-05
aF5.7e-05
aF5.7e-05
aF5.7e-05
aF5.7e-05
aF5.7e-05
aF5.7e-05
aF5.7e-05
aF5.7e-05
aF5.7e-05
aF5.7e-05
aF5.7e-05
aF5.7e-05
aF5.7e-05
aF5.7e-05
aF5.7e-05
aF5.7e-05
aF5.7e-05
aF5.7e-05
aF5.7e-05
aF5.7e-05
aF5.7e-05
aF5.7e-05
aF5.7e-05
aF5.7e-05
aF5.7e-05
aF5.7e-05
aF5.7e-05
aF5.7e-05
aF5.7e-05
aF5.7e-05
aF5.7e-05
aF5.7e-05
aF5.7e-05
aF5.7e-05
aF5.7e-05
aF5.7e-05
aF5.7e-05
aF5.7e-05
aF5.7e-05
aF5.7e-05
aF5.7e-05
aF5.7e-05
aF5.7e-05
aF5.7e-05
aF5.7e-05
aF5.7e-05
aF5.7e-05
aF5.7e-05
aF5.7e-05
aF5.7e-05
aF5.7e-05
aF5.7e-05
aF5.7e-05
aF5.7e-05
aF5.7e-05
aF5.7e-05
aF5.7e-05
aF5.7e-05
aF5.7e-05
aF5.7e-05
aF5.7e-05
aF5.7e-05
aF5.7e-05
aF5.7e-05
aF5.7e-05
aF5.7e-05
aF5.7e-05
aF5.7e-05
aF5.7e-05
aF5.7e-05
aF5.7e-05
aF5.7e-05
aF5.7e-05
aF5.7e-05
aF5.7e-05
aF5.7e-05
aF5.7e-05
aF5.7e-05
aF5.7e-05
aF5.7e-05
aF5.7e-05
aF5.7e-05
aF5.7e-05
aF5.7e-05
aF5.7e-05
aF5.7e-05
aF5.7e-05
aF5.7e-05
aF5.7e-05
aF5.7e-05
aF5.7e-05
aF5.7e-05
aF5.7e-05
aF5.7e-05
aF5.7e-05
aF5.7e-05
aF5.7e-05
aF5.7e-05
aF5.7e-05
aF5.7e-05
aF5.7e-05
aF5.7e-05
aF5.7e-05
aF5.7e-05
aF5.7e-05
aF5.7e-05
aF5.7e-05
aF5.7e-05
aF5.7e-05
aF5.7e-05
aF5.7e-05
aF5.7e-05
aF5.7e-05
aF5.7e-05
aF5.7e-05
aF5.7e-05
aF5.7e-05
aF5.7e-05
aF5.7e-05
aF5.7e-05
aF5.7e-05
aF5.7e-05
aF5.7e-05
aF5.7e-05
aF5.7e-05
aF5.7e-05
aF5.7e-05
aF5.7e-05
aF5.7e-05
aF5.7e-05
aF5.7e-05
aF5.7e-05
aF5.7e-05
aF5.7e-05
aF5.7e-05
aF5.7e-05
aF5.7e-05
aF5.7e-05
aF5.7e-05
aF5.7e-05
aF5.7e-05
aF5.7e-05
aF5.7e-05
aF5.7e-05
aF5.7e-05
aF5.7e-05
aF5.7e-05
aF5.7e-05
aF5.7e-05
aF5.7e-05
aF5.7e-05
aF5.7e-05
aF5.7e-05
aF5.7e-05
aF5.7e-05
aF5.7e-05
aF5.7e-05
aF5.7e-05
aF5.7e-05
aF5.7e-05
aF5.7e-05
aF5.7e-05
aF5.7e-05
aF5.7e-05
aF5.7e-05
aF5.7e-05
aF5.7e-05
aF5.7e-05
aF5.7e-05
aF5.7e-05
aF5.7e-05
aF5.7e-05
aF5.7e-05
aF5.7e-05
aF5.7e-05
aF5.7e-05
aF5.7e-05
aF5.7e-05
aF5.7e-05
aF5.7e-05
aF5.7e-05
aF5.7e-05
aF5.7e-05
aF5.7e-05
aF5.7e-05
aF5.7e-05
aF5.7e-05
aF5.7e-05
aF5.7e-05
aF5.7e-05
aF5.7e-05
aF5.7e-05
aF5.7e-05
aF5.7e-05
aF5.7e-05
aF5.7e-05
aF5.7e-05
aF5.7e-05
aF5.7e-05
aF5.7e-05
aF5.7e-05
aF5.7e-05
aF5.7e-05
aF5.7e-05
aF5.7e-05
aF5.7e-05
aF5.7e-05
aF5.7e-05
aF5.7e-05
aF5.7e-05
aF5.7e-05
aF5.7e-05
aF5.7e-05
aF5.7e-05
aF5.7e-05
aF5.7e-05
aF5.7e-05
aF5.7e-05
aF5.7e-05
aF5.7e-05
aF5.7e-05
aF5.7e-05
aF5.7e-05
aF5.7e-05
aF5.7e-05
aF5.7e-05
aF5.7e-05
aF5.7e-05
aF5.7e-05
aF5.7e-05
aF5.7e-05
aF5.7e-05
aF5.7e-05
aF5.7e-05
aF5.7e-05
aF5.7e-05
aF5.7e-05
aF5.7e-05
aF5.7e-05
aF5.7e-05
aF5.7e-05
aF5.7e-05
aF5.7e-05
aF5.7e-05
aF5.7e-05
aF5.7e-05
aF5.7e-05
aF5.7e-05
aF5.7e-05
aF5.7e-05
aF5.7e-05
aF5.7e-05
aF5.7e-05
aF5.7e-05
aF5.7e-05
aF5.7e-05
aF5.7e-05
aF5.7e-05
aF5.7e-05
aF5.7e-05
aF5.7e-05
aF5.7e-05
aF5.7e-05
aF5.7e-05
aF5.7e-05
aF5.7e-05
aF5.7e-05
aF5.7e-05
aF5.7e-05
aF5.7e-05
aF5.7e-05
aF5.7e-05
aF5.7e-05
aF5.7e-05
aF5.7e-05
aF5.7e-05
aF5.7e-05
aF5.7e-05
aF5.7e-05
aF5.7e-05
aF5.7e-05
aF5.7e-05
aF5.7e-05
aF5.7e-05
aF5.7e-05
aF5.7e-05
aF5.7e-05
aF5.7e-05
aF5.7e-05
aF5.7e-05
aF5.7e-05
aF5.7e-05
aF5.7e-05
aF5.7e-05
aF5.7e-05
aF5.7e-05
aF5.7e-05
aF5.7e-05
aF5.7e-05
aF5.7e-05
aF5.7e-05
aF5.7e-05
aF5.7e-05
aF5.7e-05
aF5.7e-05
aF5.7e-05
aF5.7e-05
aF5.7e-05
aF5.7e-05
aF5.7e-05
aF5.7e-05
aF5.7e-05
aF5.7e-05
aF5.7e-05
aF5.7e-05
aF5.7e-05
aF5.7e-05
aF5.7e-05
aF5.7e-05
aF5.7e-05
aF5.7e-05
aF5.7e-05
aF5.7e-05
aF5.7e-05
aF5.7e-05
aF5.7e-05
aF5.7e-05
aF5.7e-05
aF5.7e-05
aF5.7e-05
aF5.7e-05
aF5.7e-05
aF5.7e-05
aF5.7e-05
aF5.7e-05
aF5.7e-05
aF5.7e-05
aF5.7e-05
aF5.7e-05
aF5.7e-05
aF5.7e-05
aF5.7e-05
aF5.7e-05
aF5.7e-05
aF5.7e-05
aF5.7e-05
aF5.7e-05
aF5.7e-05
aF5.7e-05
aF5.7e-05
aF5.7e-05
aF5.7e-05
aF5.7e-05
aF5.7e-05
aF5.7e-05
aF5.7e-05
aF5.7e-05
aF5.7e-05
aF5.7e-05
aF5.7e-05
aF5.7e-05
aF5.7e-05
aF5.7e-05
aF5.7e-05
aF5.7e-05
aF5.7e-05
aF5.7e-05
aF5.7e-05
aF5.7e-05
aF5.7e-05
aF5.7e-05
aF5.7e-05
aF5.7e-05
aF5.7e-05
aF5.7e-05
aF5.7e-05
aF5.7e-05
aF5.7e-05
aF5.7e-05
aF5.7e-05
aF5.7e-05
aF5.7e-05
aF5.7e-05
aF5.7e-05
aF5.7e-05
aF5.7e-05
aF5.7e-05
aF5.7e-05
aF5.7e-05
aF5.7e-05
aF5.7e-05
aF5.7e-05
aF5.7e-05
aF5.7e-05
aF5.7e-05
aF5.7e-05
aF5.7e-05
aF5.7e-05
aF5.7e-05
aF5.7e-05
aF5.7e-05
aF5.7e-05
aF5.7e-05
aF5.7e-05
aF5.7e-05
aF5.7e-05
aF5.7e-05
aF5.7e-05
aF5.7e-05
aF5.7e-05
aF5.7e-05
aF5.7e-05
aF5.7e-05
aF5.7e-05
aF5.7e-05
aF5.7e-05
aF5.7e-05
aF5.7e-05
aF5.7e-05
aF5.7e-05
aF5.7e-05
aF5.7e-05
aF5.7e-05
aF5.7e-05
aF5.7e-05
aF5.7e-05
aF5.7e-05
aF5.7e-05
aF5.7e-05
aF5.7e-05
aF5.7e-05
aF5.7e-05
aF5.7e-05
aF5.7e-05
aF5.7e-05
aF5.7e-05
aF5.7e-05
aF5.7e-05
aF5.7e-05
aF5.7e-05
aF5.7e-05
aF5.7e-05
aF5.7e-05
aF5.7e-05
aF5.7e-05
aF5.7e-05
aF5.7e-05
aF5.7e-05
aF5.7e-05
aF5.7e-05
aF5.7e-05
aF5.7e-05
aF5.7e-05
aF5.7e-05
aF5.7e-05
aF5.7e-05
aF5.7e-05
aF5.7e-05
aF5.7e-05
aF5.7e-05
aF5.7e-05
aF5.7e-05
aF5.7e-05
aF5.7e-05
aF5.7e-05
aF5.7e-05
aF5.7e-05
aF5.7e-05
aF5.7e-05
aF5.7e-05
aF5.7e-05
aF5.7e-05
aF5.7e-05
aF5.7e-05
aF5.7e-05
aF5.7e-05
aF5.7e-05
aF5.7e-05
aF5.7e-05
aF5.7e-05
aF5.7e-05
aF5.7e-05
aF5.7e-05
aF5.7e-05
aF5.7e-05
aF5.7e-05
aF5.7e-05
aF5.7e-05
aF5.7e-05
aF5.7e-05
aF5.7e-05
aF5.7e-05
aF5.7e-05
aF5.7e-05
aF5.7e-05
aF5.7e-05
aF5.7e-05
aF5.7e-05
aF5.7e-05
aF5.7e-05
aF5.7e-05
aF5.7e-05
aF5.7e-05
aF5.7e-05
aF5.7e-05
aF5.7e-05
aF5.7e-05
aF5.7e-05
aF5.7e-05
aF5.7e-05
aF5.7e-05
aF5.7e-05
aF5.7e-05
aF5.7e-05
aF5.7e-05
aF5.7e-05
aF5.7e-05
aF5.7e-05
aF5.7e-05
aF5.7e-05
aF5.7e-05
aF5.7e-05
aF5.7e-05
aF5.7e-05
aF5.7e-05
aF5.7e-05
aF5.7e-05
aF5.7e-05
aF5.7e-05
aF5.7e-05
aF5.7e-05
aF5.7e-05
aF5.7e-05
aF5.7e-05
aF5.7e-05
aF5.7e-05
aF5.7e-05
aF5.7e-05
aF5.7e-05
aF5.7e-05
aF5.7e-05
aF5.7e-05
aF5.7e-05
aF5.7e-05
aF5.7e-05
aF5.7e-05
aF5.7e-05
aF5.7e-05
aF5.7e-05
aF5.7e-05
aF5.7e-05
aF5.7e-05
aF5.7e-05
aF5.7e-05
aF5.7e-05
aF5.7e-05
aF5.7e-05
aF5.7e-05
aF5.7e-05
aF5.7e-05
aF5.7e-05
aF5.7e-05
aF5.7e-05
aF5.7e-05
aF5.7e-05
aF5.7e-05
aF5.7e-05
aF5.7e-05
aF5.7e-05
aF5.7e-05
aF5.7e-05
aF5.7e-05
aF5.7e-05
aF5.7e-05
aF5.7e-05
aF5.7e-05
aF5.7e-05
aF5.7e-05
aF5.7e-05
aF5.7e-05
aF5.7e-05
aF5.7e-05
aF5.7e-05
aF5.7e-05
aF5.7e-05
aF5.7e-05
aF5.7e-05
aF5.7e-05
aF5.7e-05
aF5.7e-05
aF5.7e-05
atp95
tp96
Rp97
aatp98
Rp99
sS'val_outputs'
p100
g17
((lp101
(lp102
g20
ag0
(g21
g22
(g23
(lp103
I0
aF1.0
aF2.0
aF3.0
atp104
tp105
Rp106
aa(lp107
S'loss1/loss1'
p108
ag0
(g21
g22
(S'SoftmaxWithLoss'
p109
(lp110
F1.15572
aF1.02955
aF0.940369
aF0.945943
atp111
tp112
Rp113
aa(lp114
S'loss1/top-1'
p115
ag0
(g21
g22
(S'Accuracy'
p116
(lp117
F0.700402
aF0.714241
aF0.724962
aF0.722342
atp118
tp119
Rp120
aa(lp121
S'loss1/top-5'
p122
ag0
(g21
g22
(S'Accuracy'
p123
(lp124
F0.92462
aF0.93428
aF0.9444
aF0.9427
atp125
tp126
Rp127
aa(lp128
S'loss2/loss1'
p129
ag0
(g21
g22
(S'SoftmaxWithLoss'
p130
(lp131
F1.54298
aF1.35877
aF1.22255
aF1.25071
atp132
tp133
Rp134
aa(lp135
S'loss2/top-1'
p136
ag0
(g21
g22
(S'Accuracy'
p137
(lp138
F0.671121
aF0.686942
aF0.697462
aF0.694943
atp139
tp140
Rp141
aa(lp142
S'loss2/top-5'
p143
ag0
(g21
g22
(S'Accuracy'
p144
(lp145
F0.864804
aF0.878543
aF0.890923
aF0.888043
atp146
tp147
Rp148
aa(lp149
S'loss3/loss3'
p150
ag0
(g21
g22
(S'SoftmaxWithLoss'
p151
(lp152
F1.84807
aF1.57319
aF1.38544
aF1.44073
atp153
tp154
Rp155
aa(lp156
S'loss3/top-1'
p157
ag0
(g21
g22
(S'Accuracy'
p158
(lp159
F0.635081
aF0.661101
aF0.671441
aF0.668781
atp160
tp161
Rp162
aa(lp163
S'loss3/top-5'
p164
ag0
(g21
g22
(S'Accuracy'
p165
(lp166
F0.847644
aF0.864583
aF0.877283
aF0.875243
atp167
tp168
Rp169
aatp170
Rp171
sS'loaded_snapshot_epoch'
p172
NsS'pretrained_model'
p173
V/home/nvidia/digits-2.2/digits/jobs/20151105-150238-61f1/snapshot_iter_1868370.caffemodel
p174
sS'deploy_file'
p175
S'deploy.prototxt'
p176
sS'current_iteration'
p177
I42824
sS'gpu_count'
p178
NsS'train_epochs'
p179
I35
sS'network'
p180
ccaffe.proto.caffe_pb2
NetParameter
p181
(tRp182
(dp183
S'serialized'
p184
S'\xa2\x06%\n\x04data\x12\x04Data"\x04dataB\x02\x08\x00\xa2\x06\x05\x10\x01\x18\xe0\x01\xda\x06\x04 `@\x01\xa2\x06\x1f\n\x05label\x12\x04Data"\x05labelB\x02\x08\x00\xda\x06\x04 `@\x01\xa2\x06%\n\x04data\x12\x04Data"\x04dataB\x02\x08\x01\xa2\x06\x05\x10\x00\x18\xe0\x01\xda\x06\x04 \x19@\x01\xa2\x06\x1f\n\x05label\x12\x04Data"\x05labelB\x02\x08\x01\xda\x06\x04 \x19@\x01\xa2\x06U\n\x0cslicer_label\x12\x05Slice\x1a\x05label"\x0elabel1_one_hot"\x0elabel2_one_hot"\x0elabel3_one_hot\xf2\x07\x06\x10\x01\x10\x02\x18\x01\xa2\x06/\n\rargmax_label1\x12\x06ArgMax\x1a\x0elabel1_one_hot"\x06label1\xa2\x06/\n\rargmax_label2\x12\x06ArgMax\x1a\x0elabel2_one_hot"\x06label2\xa2\x06/\n\rargmax_label3\x12\x06ArgMax\x1a\x0elabel3_one_hot"\x06label3\xa2\x06r\n\x0cconv1/7x7_s2\x12\x0bConvolution\x1a\x04data"\x0cconv1/7x7_s22\n\x1d\x00\x00\x80?%\x00\x00\x80?2\n\x1d\x00\x00\x00@%\x00\x00\x00\x00\xd2\x06(\x08@\x18\x03 \x070\x02:\r\n\x06xavier5\xcd\xcc\xcc=B\x0f\n\x08constant\x15\xcd\xccL>\xa2\x062\n\x0econv1/relu_7x7\x12\x04ReLU\x1a\x0cconv1/7x7_s2"\x0cconv1/7x7_s2\xa2\x06<\n\x0cpool1/3x3_s2\x12\x07Pooling\x1a\x0cconv1/7x7_s2"\x0cpool1/3x3_s2\xca\x07\x06\x08\x00\x10\x03\x18\x02\xa2\x06<\n\x0bpool1/norm1\x12\x03LRN\x1a\x0cpool1/3x3_s2"\x0bpool1/norm1\xb2\x07\x0c\x08\x05\x15\x17\xb7\xd18\x1d\x00\x00@?\xa2\x06}\n\x10conv2/3x3_reduce\x12\x0bConvolution\x1a\x0bpool1/norm1"\x10conv2/3x3_reduce2\n\x1d\x00\x00\x80?%\x00\x00\x80?2\n\x1d\x00\x00\x00@%\x00\x00\x00\x00\xd2\x06$\x08@ \x01:\r\n\x06xavier5\xcd\xcc\xcc=B\x0f\n\x08constant\x15\xcd\xccL>\xa2\x06A\n\x15conv2/relu_3x3_reduce\x12\x04ReLU\x1a\x10conv2/3x3_reduce"\x10conv2/3x3_reduce\xa2\x06w\n\tconv2/3x3\x12\x0bConvolution\x1a\x10conv2/3x3_reduce"\tconv2/3x32\n\x1d\x00\x00\x80?%\x00\x00\x80?2\n\x1d\x00\x00\x00@%\x00\x00\x00\x00\xd2\x06\'\x08\xc0\x01\x18\x01 \x03:\r\n\x06xavier5\x8f\xc2\xf5<B\x0f\n\x08constant\x15\xcd\xccL>\xa2\x06,\n\x0econv2/relu_3x3\x12\x04ReLU\x1a\tconv2/3x3"\tconv2/3x3\xa2\x069\n\x0bconv2/norm2\x12\x03LRN\x1a\tconv2/3x3"\x0bconv2/norm2\xb2\x07\x0c\x08\x05\x15\x17\xb7\xd18\x1d\x00\x00@?\xa2\x06;\n\x0cpool2/3x3_s2\x12\x07Pooling\x1a\x0bconv2/norm2"\x0cpool2/3x3_s2\xca\x07\x06\x08\x00\x10\x03\x18\x02\xa2\x06~\n\x10inception_3a/1x1\x12\x0bConvolution\x1a\x0cpool2/3x3_s2"\x10inception_3a/1x12\n\x1d\x00\x00\x80?%\x00\x00\x80?2\n\x1d\x00\x00\x00@%\x00\x00\x00\x00\xd2\x06$\x08@ \x01:\r\n\x06xavier5\x8f\xc2\xf5<B\x0f\n\x08constant\x15\xcd\xccL>\xa2\x06A\n\x15inception_3a/relu_1x1\x12\x04ReLU\x1a\x10inception_3a/1x1"\x10inception_3a/1x1\xa2\x06\x8c\x01\n\x17inception_3a/3x3_reduce\x12\x0bConvolution\x1a\x0cpool2/3x3_s2"\x17inception_3a/3x3_reduce2\n\x1d\x00\x00\x80?%\x00\x00\x80?2\n\x1d\x00\x00\x00@%\x00\x00\x00\x00\xd2\x06$\x08` \x01:\r\n\x06xavier5\xecQ\xb8=B\x0f\n\x08constant\x15\xcd\xccL>\xa2\x06V\n\x1cinception_3a/relu_3x3_reduce\x12\x04ReLU\x1a\x17inception_3a/3x3_reduce"\x17inception_3a/3x3_reduce\xa2\x06\x8c\x01\n\x10inception_3a/3x3\x12\x0bConvolution\x1a\x17inception_3a/3x3_reduce"\x10inception_3a/3x32\n\x1d\x00\x00\x80?%\x00\x00\x80?2\n\x1d\x00\x00\x00@%\x00\x00\x00\x00\xd2\x06\'\x08\x80\x01\x18\x01 \x03:\r\n\x06xavier5\x8f\xc2\xf5<B\x0f\n\x08constant\x15\xcd\xccL>\xa2\x06A\n\x15inception_3a/relu_3x3\x12\x04ReLU\x1a\x10inception_3a/3x3"\x10inception_3a/3x3\xa2\x06\x8c\x01\n\x17inception_3a/5x5_reduce\x12\x0bConvolution\x1a\x0cpool2/3x3_s2"\x17inception_3a/5x5_reduce2\n\x1d\x00\x00\x80?%\x00\x00\x80?2\n\x1d\x00\x00\x00@%\x00\x00\x00\x00\xd2\x06$\x08\x10 \x01:\r\n\x06xavier5\xcd\xccL>B\x0f\n\x08constant\x15\xcd\xccL>\xa2\x06V\n\x1cinception_3a/relu_5x5_reduce\x12\x04ReLU\x1a\x17inception_3a/5x5_reduce"\x17inception_3a/5x5_reduce\xa2\x06\x8b\x01\n\x10inception_3a/5x5\x12\x0bConvolution\x1a\x17inception_3a/5x5_reduce"\x10inception_3a/5x52\n\x1d\x00\x00\x80?%\x00\x00\x80?2\n\x1d\x00\x00\x00@%\x00\x00\x00\x00\xd2\x06&\x08 \x18\x02 \x05:\r\n\x06xavier5\x8f\xc2\xf5<B\x0f\n\x08constant\x15\xcd\xccL>\xa2\x06A\n\x15inception_3a/relu_5x5\x12\x04ReLU\x1a\x10inception_3a/5x5"\x10inception_3a/5x5\xa2\x06H\n\x11inception_3a/pool\x12\x07Pooling\x1a\x0cpool2/3x3_s2"\x11inception_3a/pool\xca\x07\x08\x08\x00\x10\x03\x18\x01 \x01\xa2\x06\x8f\x01\n\x16inception_3a/pool_proj\x12\x0bConvolution\x1a\x11inception_3a/pool"\x16inception_3a/pool_proj2\n\x1d\x00\x00\x80?%\x00\x00\x80?2\n\x1d\x00\x00\x00@%\x00\x00\x00\x00\xd2\x06$\x08  \x01:\r\n\x06xavier5\xcd\xcc\xcc=B\x0f\n\x08constant\x15\xcd\xccL>\xa2\x06S\n\x1binception_3a/relu_pool_proj\x12\x04ReLU\x1a\x16inception_3a/pool_proj"\x16inception_3a/pool_proj\xa2\x06\x80\x01\n\x13inception_3a/output\x12\x06Concat\x1a\x10inception_3a/1x1\x1a\x10inception_3a/3x3\x1a\x10inception_3a/5x5\x1a\x16inception_3a/pool_proj"\x13inception_3a/output\xa2\x06\x86\x01\n\x10inception_3b/1x1\x12\x0bConvolution\x1a\x13inception_3a/output"\x10inception_3b/1x12\n\x1d\x00\x00\x80?%\x00\x00\x80?2\n\x1d\x00\x00\x00@%\x00\x00\x00\x00\xd2\x06%\x08\x80\x01 \x01:\r\n\x06xavier5\x8f\xc2\xf5<B\x0f\n\x08constant\x15\xcd\xccL>\xa2\x06A\n\x15inception_3b/relu_1x1\x12\x04ReLU\x1a\x10inception_3b/1x1"\x10inception_3b/1x1\xa2\x06\x94\x01\n\x17inception_3b/3x3_reduce\x12\x0bConvolution\x1a\x13inception_3a/output"\x17inception_3b/3x3_reduce2\n\x1d\x00\x00\x80?%\x00\x00\x80?2\n\x1d\x00\x00\x00@%\x00\x00\x00\x00\xd2\x06%\x08\x80\x01 \x01:\r\n\x06xavier5\xecQ\xb8=B\x0f\n\x08constant\x15\xcd\xccL>\xa2\x06V\n\x1cinception_3b/relu_3x3_reduce\x12\x04ReLU\x1a\x17inception_3b/3x3_reduce"\x17inception_3b/3x3_reduce\xa2\x06\x8c\x01\n\x10inception_3b/3x3\x12\x0bConvolution\x1a\x17inception_3b/3x3_reduce"\x10inception_3b/3x32\n\x1d\x00\x00\x80?%\x00\x00\x80?2\n\x1d\x00\x00\x00@%\x00\x00\x00\x00\xd2\x06\'\x08\xc0\x01\x18\x01 \x03:\r\n\x06xavier5\x8f\xc2\xf5<B\x0f\n\x08constant\x15\xcd\xccL>\xa2\x06A\n\x15inception_3b/relu_3x3\x12\x04ReLU\x1a\x10inception_3b/3x3"\x10inception_3b/3x3\xa2\x06\x93\x01\n\x17inception_3b/5x5_reduce\x12\x0bConvolution\x1a\x13inception_3a/output"\x17inception_3b/5x5_reduce2\n\x1d\x00\x00\x80?%\x00\x00\x80?2\n\x1d\x00\x00\x00@%\x00\x00\x00\x00\xd2\x06$\x08  \x01:\r\n\x06xavier5\xcd\xccL>B\x0f\n\x08constant\x15\xcd\xccL>\xa2\x06V\n\x1cinception_3b/relu_5x5_reduce\x12\x04ReLU\x1a\x17inception_3b/5x5_reduce"\x17inception_3b/5x5_reduce\xa2\x06\x8b\x01\n\x10inception_3b/5x5\x12\x0bConvolution\x1a\x17inception_3b/5x5_reduce"\x10inception_3b/5x52\n\x1d\x00\x00\x80?%\x00\x00\x80?2\n\x1d\x00\x00\x00@%\x00\x00\x00\x00\xd2\x06&\x08`\x18\x02 \x05:\r\n\x06xavier5\x8f\xc2\xf5<B\x0f\n\x08constant\x15\xcd\xccL>\xa2\x06A\n\x15inception_3b/relu_5x5\x12\x04ReLU\x1a\x10inception_3b/5x5"\x10inception_3b/5x5\xa2\x06O\n\x11inception_3b/pool\x12\x07Pooling\x1a\x13inception_3a/output"\x11inception_3b/pool\xca\x07\x08\x08\x00\x10\x03\x18\x01 \x01\xa2\x06\x8f\x01\n\x16inception_3b/pool_proj\x12\x0bConvolution\x1a\x11inception_3b/pool"\x16inception_3b/pool_proj2\n\x1d\x00\x00\x80?%\x00\x00\x80?2\n\x1d\x00\x00\x00@%\x00\x00\x00\x00\xd2\x06$\x08@ \x01:\r\n\x06xavier5\xcd\xcc\xcc=B\x0f\n\x08constant\x15\xcd\xccL>\xa2\x06S\n\x1binception_3b/relu_pool_proj\x12\x04ReLU\x1a\x16inception_3b/pool_proj"\x16inception_3b/pool_proj\xa2\x06\x80\x01\n\x13inception_3b/output\x12\x06Concat\x1a\x10inception_3b/1x1\x1a\x10inception_3b/3x3\x1a\x10inception_3b/5x5\x1a\x16inception_3b/pool_proj"\x13inception_3b/output\xa2\x06C\n\x0cpool3/3x3_s2\x12\x07Pooling\x1a\x13inception_3b/output"\x0cpool3/3x3_s2\xca\x07\x06\x08\x00\x10\x03\x18\x02\xa2\x06\x7f\n\x10inception_4a/1x1\x12\x0bConvolution\x1a\x0cpool3/3x3_s2"\x10inception_4a/1x12\n\x1d\x00\x00\x80?%\x00\x00\x80?2\n\x1d\x00\x00\x00@%\x00\x00\x00\x00\xd2\x06%\x08\xc0\x01 \x01:\r\n\x06xavier5\x8f\xc2\xf5<B\x0f\n\x08constant\x15\xcd\xccL>\xa2\x06A\n\x15inception_4a/relu_1x1\x12\x04ReLU\x1a\x10inception_4a/1x1"\x10inception_4a/1x1\xa2\x06\x8c\x01\n\x17inception_4a/3x3_reduce\x12\x0bConvolution\x1a\x0cpool3/3x3_s2"\x17inception_4a/3x3_reduce2\n\x1d\x00\x00\x80?%\x00\x00\x80?2\n\x1d\x00\x00\x00@%\x00\x00\x00\x00\xd2\x06$\x08` \x01:\r\n\x06xavier5\xecQ\xb8=B\x0f\n\x08constant\x15\xcd\xccL>\xa2\x06V\n\x1cinception_4a/relu_3x3_reduce\x12\x04ReLU\x1a\x17inception_4a/3x3_reduce"\x17inception_4a/3x3_reduce\xa2\x06\x8c\x01\n\x10inception_4a/3x3\x12\x0bConvolution\x1a\x17inception_4a/3x3_reduce"\x10inception_4a/3x32\n\x1d\x00\x00\x80?%\x00\x00\x80?2\n\x1d\x00\x00\x00@%\x00\x00\x00\x00\xd2\x06\'\x08\xd0\x01\x18\x01 \x03:\r\n\x06xavier5\x8f\xc2\xf5<B\x0f\n\x08constant\x15\xcd\xccL>\xa2\x06A\n\x15inception_4a/relu_3x3\x12\x04ReLU\x1a\x10inception_4a/3x3"\x10inception_4a/3x3\xa2\x06\x8c\x01\n\x17inception_4a/5x5_reduce\x12\x0bConvolution\x1a\x0cpool3/3x3_s2"\x17inception_4a/5x5_reduce2\n\x1d\x00\x00\x80?%\x00\x00\x80?2\n\x1d\x00\x00\x00@%\x00\x00\x00\x00\xd2\x06$\x08\x10 \x01:\r\n\x06xavier5\xcd\xccL>B\x0f\n\x08constant\x15\xcd\xccL>\xa2\x06V\n\x1cinception_4a/relu_5x5_reduce\x12\x04ReLU\x1a\x17inception_4a/5x5_reduce"\x17inception_4a/5x5_reduce\xa2\x06\x8b\x01\n\x10inception_4a/5x5\x12\x0bConvolution\x1a\x17inception_4a/5x5_reduce"\x10inception_4a/5x52\n\x1d\x00\x00\x80?%\x00\x00\x80?2\n\x1d\x00\x00\x00@%\x00\x00\x00\x00\xd2\x06&\x080\x18\x02 \x05:\r\n\x06xavier5\x8f\xc2\xf5<B\x0f\n\x08constant\x15\xcd\xccL>\xa2\x06A\n\x15inception_4a/relu_5x5\x12\x04ReLU\x1a\x10inception_4a/5x5"\x10inception_4a/5x5\xa2\x06H\n\x11inception_4a/pool\x12\x07Pooling\x1a\x0cpool3/3x3_s2"\x11inception_4a/pool\xca\x07\x08\x08\x00\x10\x03\x18\x01 \x01\xa2\x06\x8f\x01\n\x16inception_4a/pool_proj\x12\x0bConvolution\x1a\x11inception_4a/pool"\x16inception_4a/pool_proj2\n\x1d\x00\x00\x80?%\x00\x00\x80?2\n\x1d\x00\x00\x00@%\x00\x00\x00\x00\xd2\x06$\x08@ \x01:\r\n\x06xavier5\xcd\xcc\xcc=B\x0f\n\x08constant\x15\xcd\xccL>\xa2\x06S\n\x1binception_4a/relu_pool_proj\x12\x04ReLU\x1a\x16inception_4a/pool_proj"\x16inception_4a/pool_proj\xa2\x06\x80\x01\n\x13inception_4a/output\x12\x06Concat\x1a\x10inception_4a/1x1\x1a\x10inception_4a/3x3\x1a\x10inception_4a/5x5\x1a\x16inception_4a/pool_proj"\x13inception_4a/output\xa2\x06G\n\x0eloss1/ave_pool\x12\x07Pooling\x1a\x13inception_4a/output"\x0eloss1/ave_pool\xca\x07\x06\x08\x01\x10\x05\x18\x03\xa2\x06u\n\nloss1/conv\x12\x0bConvolution\x1a\x0eloss1/ave_pool"\nloss1/conv2\n\x1d\x00\x00\x80?%\x00\x00\x80?2\n\x1d\x00\x00\x00@%\x00\x00\x00\x00\xd2\x06%\x08\x80\x01 \x01:\r\n\x06xavier5\n\xd7\xa3=B\x0f\n\x08constant\x15\xcd\xccL>\xa2\x06/\n\x0floss1/relu_conv\x12\x04ReLU\x1a\nloss1/conv"\nloss1/conv\xa2\x06l\n\x08loss1/fc\x12\x0cInnerProduct\x1a\nloss1/conv"\x08loss1/fc2\n\x1d\x00\x00\x80?%\x00\x00\x80?2\n\x1d\x00\x00\x00@%\x00\x00\x00\x00\xaa\x07#\x08\x80\x08\x1a\r\n\x06xavier5\n\xd7\xa3<"\x0f\n\x08constant\x15\xcd\xccL>\xa2\x06)\n\rloss1/relu_fc\x12\x04ReLU\x1a\x08loss1/fc"\x08loss1/fc\xa2\x064\n\rloss1/drop_fc\x12\x07Dropout\x1a\x08loss1/fc"\x08loss1/fc\xe2\x06\x05\r333?\xa2\x06y\n\x10loss1/classifier\x12\x0cInnerProduct\x1a\x08loss1/fc"\x10loss1/classifier2\n\x1d\x00\x00\x80?%\x00\x00\x80?2\n\x1d\x00\x00\x00@%\x00\x00\x00\x00\xaa\x07"\x08E\x1a\r\n\x06xavier5\x00\x00\x80:"\x0f\n\x08constant\x15\x00\x00\x00\x00\xa2\x06\x86\x01\n\x10inception_4b/1x1\x12\x0bConvolution\x1a\x13inception_4a/output"\x10inception_4b/1x12\n\x1d\x00\x00\x80?%\x00\x00\x80?2\n\x1d\x00\x00\x00@%\x00\x00\x00\x00\xd2\x06%\x08\xa0\x01 \x01:\r\n\x06xavier5\x8f\xc2\xf5<B\x0f\n\x08constant\x15\xcd\xccL>\xa2\x06A\n\x15inception_4b/relu_1x1\x12\x04ReLU\x1a\x10inception_4b/1x1"\x10inception_4b/1x1\xa2\x06\x93\x01\n\x17inception_4b/3x3_reduce\x12\x0bConvolution\x1a\x13inception_4a/output"\x17inception_4b/3x3_reduce2\n\x1d\x00\x00\x80?%\x00\x00\x80?2\n\x1d\x00\x00\x00@%\x00\x00\x00\x00\xd2\x06$\x08p \x01:\r\n\x06xavier5\xecQ\xb8=B\x0f\n\x08constant\x15\xcd\xccL>\xa2\x06V\n\x1cinception_4b/relu_3x3_reduce\x12\x04ReLU\x1a\x17inception_4b/3x3_reduce"\x17inception_4b/3x3_reduce\xa2\x06\x8c\x01\n\x10inception_4b/3x3\x12\x0bConvolution\x1a\x17inception_4b/3x3_reduce"\x10inception_4b/3x32\n\x1d\x00\x00\x80?%\x00\x00\x80?2\n\x1d\x00\x00\x00@%\x00\x00\x00\x00\xd2\x06\'\x08\xe0\x01\x18\x01 \x03:\r\n\x06xavier5\x8f\xc2\xf5<B\x0f\n\x08constant\x15\xcd\xccL>\xa2\x06A\n\x15inception_4b/relu_3x3\x12\x04ReLU\x1a\x10inception_4b/3x3"\x10inception_4b/3x3\xa2\x06\x93\x01\n\x17inception_4b/5x5_reduce\x12\x0bConvolution\x1a\x13inception_4a/output"\x17inception_4b/5x5_reduce2\n\x1d\x00\x00\x80?%\x00\x00\x80?2\n\x1d\x00\x00\x00@%\x00\x00\x00\x00\xd2\x06$\x08\x18 \x01:\r\n\x06xavier5\xcd\xccL>B\x0f\n\x08constant\x15\xcd\xccL>\xa2\x06V\n\x1cinception_4b/relu_5x5_reduce\x12\x04ReLU\x1a\x17inception_4b/5x5_reduce"\x17inception_4b/5x5_reduce\xa2\x06\x8b\x01\n\x10inception_4b/5x5\x12\x0bConvolution\x1a\x17inception_4b/5x5_reduce"\x10inception_4b/5x52\n\x1d\x00\x00\x80?%\x00\x00\x80?2\n\x1d\x00\x00\x00@%\x00\x00\x00\x00\xd2\x06&\x08@\x18\x02 \x05:\r\n\x06xavier5\x8f\xc2\xf5<B\x0f\n\x08constant\x15\xcd\xccL>\xa2\x06A\n\x15inception_4b/relu_5x5\x12\x04ReLU\x1a\x10inception_4b/5x5"\x10inception_4b/5x5\xa2\x06O\n\x11inception_4b/pool\x12\x07Pooling\x1a\x13inception_4a/output"\x11inception_4b/pool\xca\x07\x08\x08\x00\x10\x03\x18\x01 \x01\xa2\x06\x8f\x01\n\x16inception_4b/pool_proj\x12\x0bConvolution\x1a\x11inception_4b/pool"\x16inception_4b/pool_proj2\n\x1d\x00\x00\x80?%\x00\x00\x80?2\n\x1d\x00\x00\x00@%\x00\x00\x00\x00\xd2\x06$\x08@ \x01:\r\n\x06xavier5\xcd\xcc\xcc=B\x0f\n\x08constant\x15\xcd\xccL>\xa2\x06S\n\x1binception_4b/relu_pool_proj\x12\x04ReLU\x1a\x16inception_4b/pool_proj"\x16inception_4b/pool_proj\xa2\x06\x80\x01\n\x13inception_4b/output\x12\x06Concat\x1a\x10inception_4b/1x1\x1a\x10inception_4b/3x3\x1a\x10inception_4b/5x5\x1a\x16inception_4b/pool_proj"\x13inception_4b/output\xa2\x06\x86\x01\n\x10inception_4c/1x1\x12\x0bConvolution\x1a\x13inception_4b/output"\x10inception_4c/1x12\n\x1d\x00\x00\x80?%\x00\x00\x80?2\n\x1d\x00\x00\x00@%\x00\x00\x00\x00\xd2\x06%\x08\x80\x01 \x01:\r\n\x06xavier5\x8f\xc2\xf5<B\x0f\n\x08constant\x15\xcd\xccL>\xa2\x06A\n\x15inception_4c/relu_1x1\x12\x04ReLU\x1a\x10inception_4c/1x1"\x10inception_4c/1x1\xa2\x06\x94\x01\n\x17inception_4c/3x3_reduce\x12\x0bConvolution\x1a\x13inception_4b/output"\x17inception_4c/3x3_reduce2\n\x1d\x00\x00\x80?%\x00\x00\x80?2\n\x1d\x00\x00\x00@%\x00\x00\x00\x00\xd2\x06%\x08\x80\x01 \x01:\r\n\x06xavier5\xecQ\xb8=B\x0f\n\x08constant\x15\xcd\xccL>\xa2\x06V\n\x1cinception_4c/relu_3x3_reduce\x12\x04ReLU\x1a\x17inception_4c/3x3_reduce"\x17inception_4c/3x3_reduce\xa2\x06\x8c\x01\n\x10inception_4c/3x3\x12\x0bConvolution\x1a\x17inception_4c/3x3_reduce"\x10inception_4c/3x32\n\x1d\x00\x00\x80?%\x00\x00\x80?2\n\x1d\x00\x00\x00@%\x00\x00\x00\x00\xd2\x06\'\x08\x80\x02\x18\x01 \x03:\r\n\x06xavier5\x8f\xc2\xf5<B\x0f\n\x08constant\x15\xcd\xccL>\xa2\x06A\n\x15inception_4c/relu_3x3\x12\x04ReLU\x1a\x10inception_4c/3x3"\x10inception_4c/3x3\xa2\x06\x93\x01\n\x17inception_4c/5x5_reduce\x12\x0bConvolution\x1a\x13inception_4b/output"\x17inception_4c/5x5_reduce2\n\x1d\x00\x00\x80?%\x00\x00\x80?2\n\x1d\x00\x00\x00@%\x00\x00\x00\x00\xd2\x06$\x08\x18 \x01:\r\n\x06xavier5\xcd\xccL>B\x0f\n\x08constant\x15\xcd\xccL>\xa2\x06V\n\x1cinception_4c/relu_5x5_reduce\x12\x04ReLU\x1a\x17inception_4c/5x5_reduce"\x17inception_4c/5x5_reduce\xa2\x06\x8b\x01\n\x10inception_4c/5x5\x12\x0bConvolution\x1a\x17inception_4c/5x5_reduce"\x10inception_4c/5x52\n\x1d\x00\x00\x80?%\x00\x00\x80?2\n\x1d\x00\x00\x00@%\x00\x00\x00\x00\xd2\x06&\x08@\x18\x02 \x05:\r\n\x06xavier5\x8f\xc2\xf5<B\x0f\n\x08constant\x15\xcd\xccL>\xa2\x06A\n\x15inception_4c/relu_5x5\x12\x04ReLU\x1a\x10inception_4c/5x5"\x10inception_4c/5x5\xa2\x06O\n\x11inception_4c/pool\x12\x07Pooling\x1a\x13inception_4b/output"\x11inception_4c/pool\xca\x07\x08\x08\x00\x10\x03\x18\x01 \x01\xa2\x06\x8f\x01\n\x16inception_4c/pool_proj\x12\x0bConvolution\x1a\x11inception_4c/pool"\x16inception_4c/pool_proj2\n\x1d\x00\x00\x80?%\x00\x00\x80?2\n\x1d\x00\x00\x00@%\x00\x00\x00\x00\xd2\x06$\x08@ \x01:\r\n\x06xavier5\xcd\xcc\xcc=B\x0f\n\x08constant\x15\xcd\xccL>\xa2\x06S\n\x1binception_4c/relu_pool_proj\x12\x04ReLU\x1a\x16inception_4c/pool_proj"\x16inception_4c/pool_proj\xa2\x06\x80\x01\n\x13inception_4c/output\x12\x06Concat\x1a\x10inception_4c/1x1\x1a\x10inception_4c/3x3\x1a\x10inception_4c/5x5\x1a\x16inception_4c/pool_proj"\x13inception_4c/output\xa2\x06\x85\x01\n\x10inception_4d/1x1\x12\x0bConvolution\x1a\x13inception_4c/output"\x10inception_4d/1x12\n\x1d\x00\x00\x80?%\x00\x00\x80?2\n\x1d\x00\x00\x00@%\x00\x00\x00\x00\xd2\x06$\x08p \x01:\r\n\x06xavier5\x8f\xc2\xf5<B\x0f\n\x08constant\x15\xcd\xccL>\xa2\x06A\n\x15inception_4d/relu_1x1\x12\x04ReLU\x1a\x10inception_4d/1x1"\x10inception_4d/1x1\xa2\x06\x94\x01\n\x17inception_4d/3x3_reduce\x12\x0bConvolution\x1a\x13inception_4c/output"\x17inception_4d/3x3_reduce2\n\x1d\x00\x00\x80?%\x00\x00\x80?2\n\x1d\x00\x00\x00@%\x00\x00\x00\x00\xd2\x06%\x08\x90\x01 \x01:\r\n\x06xavier5\xecQ\xb8=B\x0f\n\x08constant\x15\xcd\xccL>\xa2\x06V\n\x1cinception_4d/relu_3x3_reduce\x12\x04ReLU\x1a\x17inception_4d/3x3_reduce"\x17inception_4d/3x3_reduce\xa2\x06\x8c\x01\n\x10inception_4d/3x3\x12\x0bConvolution\x1a\x17inception_4d/3x3_reduce"\x10inception_4d/3x32\n\x1d\x00\x00\x80?%\x00\x00\x80?2\n\x1d\x00\x00\x00@%\x00\x00\x00\x00\xd2\x06\'\x08\xa0\x02\x18\x01 \x03:\r\n\x06xavier5\x8f\xc2\xf5<B\x0f\n\x08constant\x15\xcd\xccL>\xa2\x06A\n\x15inception_4d/relu_3x3\x12\x04ReLU\x1a\x10inception_4d/3x3"\x10inception_4d/3x3\xa2\x06\x93\x01\n\x17inception_4d/5x5_reduce\x12\x0bConvolution\x1a\x13inception_4c/output"\x17inception_4d/5x5_reduce2\n\x1d\x00\x00\x80?%\x00\x00\x80?2\n\x1d\x00\x00\x00@%\x00\x00\x00\x00\xd2\x06$\x08  \x01:\r\n\x06xavier5\xcd\xccL>B\x0f\n\x08constant\x15\xcd\xccL>\xa2\x06V\n\x1cinception_4d/relu_5x5_reduce\x12\x04ReLU\x1a\x17inception_4d/5x5_reduce"\x17inception_4d/5x5_reduce\xa2\x06\x8b\x01\n\x10inception_4d/5x5\x12\x0bConvolution\x1a\x17inception_4d/5x5_reduce"\x10inception_4d/5x52\n\x1d\x00\x00\x80?%\x00\x00\x80?2\n\x1d\x00\x00\x00@%\x00\x00\x00\x00\xd2\x06&\x08@\x18\x02 \x05:\r\n\x06xavier5\x8f\xc2\xf5<B\x0f\n\x08constant\x15\xcd\xccL>\xa2\x06A\n\x15inception_4d/relu_5x5\x12\x04ReLU\x1a\x10inception_4d/5x5"\x10inception_4d/5x5\xa2\x06O\n\x11inception_4d/pool\x12\x07Pooling\x1a\x13inception_4c/output"\x11inception_4d/pool\xca\x07\x08\x08\x00\x10\x03\x18\x01 \x01\xa2\x06\x8f\x01\n\x16inception_4d/pool_proj\x12\x0bConvolution\x1a\x11inception_4d/pool"\x16inception_4d/pool_proj2\n\x1d\x00\x00\x80?%\x00\x00\x80?2\n\x1d\x00\x00\x00@%\x00\x00\x00\x00\xd2\x06$\x08@ \x01:\r\n\x06xavier5\xcd\xcc\xcc=B\x0f\n\x08constant\x15\xcd\xccL>\xa2\x06S\n\x1binception_4d/relu_pool_proj\x12\x04ReLU\x1a\x16inception_4d/pool_proj"\x16inception_4d/pool_proj\xa2\x06\x80\x01\n\x13inception_4d/output\x12\x06Concat\x1a\x10inception_4d/1x1\x1a\x10inception_4d/3x3\x1a\x10inception_4d/5x5\x1a\x16inception_4d/pool_proj"\x13inception_4d/output\xa2\x06G\n\x0eloss2/ave_pool\x12\x07Pooling\x1a\x13inception_4d/output"\x0eloss2/ave_pool\xca\x07\x06\x08\x01\x10\x05\x18\x03\xa2\x06u\n\nloss2/conv\x12\x0bConvolution\x1a\x0eloss2/ave_pool"\nloss2/conv2\n\x1d\x00\x00\x80?%\x00\x00\x80?2\n\x1d\x00\x00\x00@%\x00\x00\x00\x00\xd2\x06%\x08\x80\x01 \x01:\r\n\x06xavier5\n\xd7\xa3=B\x0f\n\x08constant\x15\xcd\xccL>\xa2\x06/\n\x0floss2/relu_conv\x12\x04ReLU\x1a\nloss2/conv"\nloss2/conv\xa2\x06l\n\x08loss2/fc\x12\x0cInnerProduct\x1a\nloss2/conv"\x08loss2/fc2\n\x1d\x00\x00\x80?%\x00\x00\x80?2\n\x1d\x00\x00\x00@%\x00\x00\x00\x00\xaa\x07#\x08\x80\x08\x1a\r\n\x06xavier5\n\xd7\xa3<"\x0f\n\x08constant\x15\xcd\xccL>\xa2\x06)\n\rloss2/relu_fc\x12\x04ReLU\x1a\x08loss2/fc"\x08loss2/fc\xa2\x064\n\rloss2/drop_fc\x12\x07Dropout\x1a\x08loss2/fc"\x08loss2/fc\xe2\x06\x05\r333?\xa2\x06z\n\x10loss2/classifier\x12\x0cInnerProduct\x1a\x08loss2/fc"\x10loss2/classifier2\n\x1d\x00\x00\x80?%\x00\x00\x80?2\n\x1d\x00\x00\x00@%\x00\x00\x00\x00\xaa\x07#\x08\xcd\x02\x1a\r\n\x06xavier5\x00\x00\x80:"\x0f\n\x08constant\x15\x00\x00\x00\x00\xa2\x06\x86\x01\n\x10inception_4e/1x1\x12\x0bConvolution\x1a\x13inception_4d/output"\x10inception_4e/1x12\n\x1d\x00\x00\x80?%\x00\x00\x80?2\n\x1d\x00\x00\x00@%\x00\x00\x00\x00\xd2\x06%\x08\x80\x02 \x01:\r\n\x06xavier5\x8f\xc2\xf5<B\x0f\n\x08constant\x15\xcd\xccL>\xa2\x06A\n\x15inception_4e/relu_1x1\x12\x04ReLU\x1a\x10inception_4e/1x1"\x10inception_4e/1x1\xa2\x06\x94\x01\n\x17inception_4e/3x3_reduce\x12\x0bConvolution\x1a\x13inception_4d/output"\x17inception_4e/3x3_reduce2\n\x1d\x00\x00\x80?%\x00\x00\x80?2\n\x1d\x00\x00\x00@%\x00\x00\x00\x00\xd2\x06%\x08\xa0\x01 \x01:\r\n\x06xavier5\xecQ\xb8=B\x0f\n\x08constant\x15\xcd\xccL>\xa2\x06V\n\x1cinception_4e/relu_3x3_reduce\x12\x04ReLU\x1a\x17inception_4e/3x3_reduce"\x17inception_4e/3x3_reduce\xa2\x06\x8c\x01\n\x10inception_4e/3x3\x12\x0bConvolution\x1a\x17inception_4e/3x3_reduce"\x10inception_4e/3x32\n\x1d\x00\x00\x80?%\x00\x00\x80?2\n\x1d\x00\x00\x00@%\x00\x00\x00\x00\xd2\x06\'\x08\xc0\x02\x18\x01 \x03:\r\n\x06xavier5\x8f\xc2\xf5<B\x0f\n\x08constant\x15\xcd\xccL>\xa2\x06A\n\x15inception_4e/relu_3x3\x12\x04ReLU\x1a\x10inception_4e/3x3"\x10inception_4e/3x3\xa2\x06\x93\x01\n\x17inception_4e/5x5_reduce\x12\x0bConvolution\x1a\x13inception_4d/output"\x17inception_4e/5x5_reduce2\n\x1d\x00\x00\x80?%\x00\x00\x80?2\n\x1d\x00\x00\x00@%\x00\x00\x00\x00\xd2\x06$\x08  \x01:\r\n\x06xavier5\xcd\xccL>B\x0f\n\x08constant\x15\xcd\xccL>\xa2\x06V\n\x1cinception_4e/relu_5x5_reduce\x12\x04ReLU\x1a\x17inception_4e/5x5_reduce"\x17inception_4e/5x5_reduce\xa2\x06\x8c\x01\n\x10inception_4e/5x5\x12\x0bConvolution\x1a\x17inception_4e/5x5_reduce"\x10inception_4e/5x52\n\x1d\x00\x00\x80?%\x00\x00\x80?2\n\x1d\x00\x00\x00@%\x00\x00\x00\x00\xd2\x06\'\x08\x80\x01\x18\x02 \x05:\r\n\x06xavier5\x8f\xc2\xf5<B\x0f\n\x08constant\x15\xcd\xccL>\xa2\x06A\n\x15inception_4e/relu_5x5\x12\x04ReLU\x1a\x10inception_4e/5x5"\x10inception_4e/5x5\xa2\x06O\n\x11inception_4e/pool\x12\x07Pooling\x1a\x13inception_4d/output"\x11inception_4e/pool\xca\x07\x08\x08\x00\x10\x03\x18\x01 \x01\xa2\x06\x90\x01\n\x16inception_4e/pool_proj\x12\x0bConvolution\x1a\x11inception_4e/pool"\x16inception_4e/pool_proj2\n\x1d\x00\x00\x80?%\x00\x00\x80?2\n\x1d\x00\x00\x00@%\x00\x00\x00\x00\xd2\x06%\x08\x80\x01 \x01:\r\n\x06xavier5\xcd\xcc\xcc=B\x0f\n\x08constant\x15\xcd\xccL>\xa2\x06S\n\x1binception_4e/relu_pool_proj\x12\x04ReLU\x1a\x16inception_4e/pool_proj"\x16inception_4e/pool_proj\xa2\x06\x80\x01\n\x13inception_4e/output\x12\x06Concat\x1a\x10inception_4e/1x1\x1a\x10inception_4e/3x3\x1a\x10inception_4e/5x5\x1a\x16inception_4e/pool_proj"\x13inception_4e/output\xa2\x06C\n\x0cpool4/3x3_s2\x12\x07Pooling\x1a\x13inception_4e/output"\x0cpool4/3x3_s2\xca\x07\x06\x08\x00\x10\x03\x18\x02\xa2\x06\x7f\n\x10inception_5a/1x1\x12\x0bConvolution\x1a\x0cpool4/3x3_s2"\x10inception_5a/1x12\n\x1d\x00\x00\x80?%\x00\x00\x80?2\n\x1d\x00\x00\x00@%\x00\x00\x00\x00\xd2\x06%\x08\x80\x02 \x01:\r\n\x06xavier5\x8f\xc2\xf5<B\x0f\n\x08constant\x15\xcd\xccL>\xa2\x06A\n\x15inception_5a/relu_1x1\x12\x04ReLU\x1a\x10inception_5a/1x1"\x10inception_5a/1x1\xa2\x06\x8d\x01\n\x17inception_5a/3x3_reduce\x12\x0bConvolution\x1a\x0cpool4/3x3_s2"\x17inception_5a/3x3_reduce2\n\x1d\x00\x00\x80?%\x00\x00\x80?2\n\x1d\x00\x00\x00@%\x00\x00\x00\x00\xd2\x06%\x08\xa0\x01 \x01:\r\n\x06xavier5\xecQ\xb8=B\x0f\n\x08constant\x15\xcd\xccL>\xa2\x06V\n\x1cinception_5a/relu_3x3_reduce\x12\x04ReLU\x1a\x17inception_5a/3x3_reduce"\x17inception_5a/3x3_reduce\xa2\x06\x8c\x01\n\x10inception_5a/3x3\x12\x0bConvolution\x1a\x17inception_5a/3x3_reduce"\x10inception_5a/3x32\n\x1d\x00\x00\x80?%\x00\x00\x80?2\n\x1d\x00\x00\x00@%\x00\x00\x00\x00\xd2\x06\'\x08\xc0\x02\x18\x01 \x03:\r\n\x06xavier5\x8f\xc2\xf5<B\x0f\n\x08constant\x15\xcd\xccL>\xa2\x06A\n\x15inception_5a/relu_3x3\x12\x04ReLU\x1a\x10inception_5a/3x3"\x10inception_5a/3x3\xa2\x06\x8c\x01\n\x17inception_5a/5x5_reduce\x12\x0bConvolution\x1a\x0cpool4/3x3_s2"\x17inception_5a/5x5_reduce2\n\x1d\x00\x00\x80?%\x00\x00\x80?2\n\x1d\x00\x00\x00@%\x00\x00\x00\x00\xd2\x06$\x08  \x01:\r\n\x06xavier5\xcd\xccL>B\x0f\n\x08constant\x15\xcd\xccL>\xa2\x06V\n\x1cinception_5a/relu_5x5_reduce\x12\x04ReLU\x1a\x17inception_5a/5x5_reduce"\x17inception_5a/5x5_reduce\xa2\x06\x8c\x01\n\x10inception_5a/5x5\x12\x0bConvolution\x1a\x17inception_5a/5x5_reduce"\x10inception_5a/5x52\n\x1d\x00\x00\x80?%\x00\x00\x80?2\n\x1d\x00\x00\x00@%\x00\x00\x00\x00\xd2\x06\'\x08\x80\x01\x18\x02 \x05:\r\n\x06xavier5\x8f\xc2\xf5<B\x0f\n\x08constant\x15\xcd\xccL>\xa2\x06A\n\x15inception_5a/relu_5x5\x12\x04ReLU\x1a\x10inception_5a/5x5"\x10inception_5a/5x5\xa2\x06H\n\x11inception_5a/pool\x12\x07Pooling\x1a\x0cpool4/3x3_s2"\x11inception_5a/pool\xca\x07\x08\x08\x00\x10\x03\x18\x01 \x01\xa2\x06\x90\x01\n\x16inception_5a/pool_proj\x12\x0bConvolution\x1a\x11inception_5a/pool"\x16inception_5a/pool_proj2\n\x1d\x00\x00\x80?%\x00\x00\x80?2\n\x1d\x00\x00\x00@%\x00\x00\x00\x00\xd2\x06%\x08\x80\x01 \x01:\r\n\x06xavier5\xcd\xcc\xcc=B\x0f\n\x08constant\x15\xcd\xccL>\xa2\x06S\n\x1binception_5a/relu_pool_proj\x12\x04ReLU\x1a\x16inception_5a/pool_proj"\x16inception_5a/pool_proj\xa2\x06\x80\x01\n\x13inception_5a/output\x12\x06Concat\x1a\x10inception_5a/1x1\x1a\x10inception_5a/3x3\x1a\x10inception_5a/5x5\x1a\x16inception_5a/pool_proj"\x13inception_5a/output\xa2\x06\x86\x01\n\x10inception_5b/1x1\x12\x0bConvolution\x1a\x13inception_5a/output"\x10inception_5b/1x12\n\x1d\x00\x00\x80?%\x00\x00\x80?2\n\x1d\x00\x00\x00@%\x00\x00\x00\x00\xd2\x06%\x08\x80\x03 \x01:\r\n\x06xavier5\x8f\xc2\xf5<B\x0f\n\x08constant\x15\xcd\xccL>\xa2\x06A\n\x15inception_5b/relu_1x1\x12\x04ReLU\x1a\x10inception_5b/1x1"\x10inception_5b/1x1\xa2\x06\x94\x01\n\x17inception_5b/3x3_reduce\x12\x0bConvolution\x1a\x13inception_5a/output"\x17inception_5b/3x3_reduce2\n\x1d\x00\x00\x80?%\x00\x00\x80?2\n\x1d\x00\x00\x00@%\x00\x00\x00\x00\xd2\x06%\x08\xc0\x01 \x01:\r\n\x06xavier5\xecQ\xb8=B\x0f\n\x08constant\x15\xcd\xccL>\xa2\x06V\n\x1cinception_5b/relu_3x3_reduce\x12\x04ReLU\x1a\x17inception_5b/3x3_reduce"\x17inception_5b/3x3_reduce\xa2\x06\x8c\x01\n\x10inception_5b/3x3\x12\x0bConvolution\x1a\x17inception_5b/3x3_reduce"\x10inception_5b/3x32\n\x1d\x00\x00\x80?%\x00\x00\x80?2\n\x1d\x00\x00\x00@%\x00\x00\x00\x00\xd2\x06\'\x08\x80\x03\x18\x01 \x03:\r\n\x06xavier5\x8f\xc2\xf5<B\x0f\n\x08constant\x15\xcd\xccL>\xa2\x06A\n\x15inception_5b/relu_3x3\x12\x04ReLU\x1a\x10inception_5b/3x3"\x10inception_5b/3x3\xa2\x06\x93\x01\n\x17inception_5b/5x5_reduce\x12\x0bConvolution\x1a\x13inception_5a/output"\x17inception_5b/5x5_reduce2\n\x1d\x00\x00\x80?%\x00\x00\x80?2\n\x1d\x00\x00\x00@%\x00\x00\x00\x00\xd2\x06$\x080 \x01:\r\n\x06xavier5\xcd\xccL>B\x0f\n\x08constant\x15\xcd\xccL>\xa2\x06V\n\x1cinception_5b/relu_5x5_reduce\x12\x04ReLU\x1a\x17inception_5b/5x5_reduce"\x17inception_5b/5x5_reduce\xa2\x06\x8c\x01\n\x10inception_5b/5x5\x12\x0bConvolution\x1a\x17inception_5b/5x5_reduce"\x10inception_5b/5x52\n\x1d\x00\x00\x80?%\x00\x00\x80?2\n\x1d\x00\x00\x00@%\x00\x00\x00\x00\xd2\x06\'\x08\x80\x01\x18\x02 \x05:\r\n\x06xavier5\x8f\xc2\xf5<B\x0f\n\x08constant\x15\xcd\xccL>\xa2\x06A\n\x15inception_5b/relu_5x5\x12\x04ReLU\x1a\x10inception_5b/5x5"\x10inception_5b/5x5\xa2\x06O\n\x11inception_5b/pool\x12\x07Pooling\x1a\x13inception_5a/output"\x11inception_5b/pool\xca\x07\x08\x08\x00\x10\x03\x18\x01 \x01\xa2\x06\x90\x01\n\x16inception_5b/pool_proj\x12\x0bConvolution\x1a\x11inception_5b/pool"\x16inception_5b/pool_proj2\n\x1d\x00\x00\x80?%\x00\x00\x80?2\n\x1d\x00\x00\x00@%\x00\x00\x00\x00\xd2\x06%\x08\x80\x01 \x01:\r\n\x06xavier5\xcd\xcc\xcc=B\x0f\n\x08constant\x15\xcd\xccL>\xa2\x06S\n\x1binception_5b/relu_pool_proj\x12\x04ReLU\x1a\x16inception_5b/pool_proj"\x16inception_5b/pool_proj\xa2\x06\x80\x01\n\x13inception_5b/output\x12\x06Concat\x1a\x10inception_5b/1x1\x1a\x10inception_5b/3x3\x1a\x10inception_5b/5x5\x1a\x16inception_5b/pool_proj"\x13inception_5b/output\xa2\x06C\n\x0cpool5/7x7_s1\x12\x07Pooling\x1a\x13inception_5b/output"\x0cpool5/7x7_s1\xca\x07\x06\x08\x01\x10\x07\x18\x01\xa2\x06@\n\x11pool5/drop_7x7_s1\x12\x07Dropout\x1a\x0cpool5/7x7_s1"\x0cpool5/7x7_s1\xe2\x06\x05\r\xcd\xcc\xcc>\xa2\x06y\n\x10loss3/classifier\x12\x0cInnerProduct\x1a\x0cpool5/7x7_s1"\x10loss3/classifier2\n\x1d\x00\x00\x80?%\x00\x00\x80?2\n\x1d\x00\x00\x00@%\x00\x00\x00\x00\xaa\x07\x1e\x08\xe8\x07\x1a\x08\n\x06xavier"\x0f\n\x08constant\x15\x00\x00\x00\x00\xa2\x06I\n\nloss1/loss\x12\x0fSoftmaxWithLoss\x1a\x10loss1/classifier\x1a\x06label1"\x0bloss1/loss1-\x9a\x99\x99>\xa2\x06I\n\nloss2/loss\x12\x0fSoftmaxWithLoss\x1a\x10loss2/classifier\x1a\x06label2"\x0bloss2/loss1-\x9a\x99\x99>\xa2\x06J\n\x0bloss3/loss3\x12\x0fSoftmaxWithLoss\x1a\x10loss3/classifier\x1a\x06label3"\x0bloss3/loss3-\x00\x00\x80?\xa2\x06>\n\x0bloss1/top-1\x12\x08Accuracy\x1a\x10loss1/classifier\x1a\x06label1"\x0bloss1/top-1\xa2\x06C\n\x0bloss1/top-5\x12\x08Accuracy\x1a\x10loss1/classifier\x1a\x06label1"\x0bloss1/top-5\xb2\x06\x02\x08\x05\xa2\x06>\n\x0bloss2/top-1\x12\x08Accuracy\x1a\x10loss2/classifier\x1a\x06label2"\x0bloss2/top-1\xa2\x06C\n\x0bloss2/top-5\x12\x08Accuracy\x1a\x10loss2/classifier\x1a\x06label2"\x0bloss2/top-5\xb2\x06\x02\x08\x05\xa2\x06>\n\x0bloss3/top-1\x12\x08Accuracy\x1a\x10loss3/classifier\x1a\x06label3"\x0bloss3/top-1\xa2\x06C\n\x0bloss3/top-5\x12\x08Accuracy\x1a\x10loss3/classifier\x1a\x06label3"\x0bloss3/top-5\xb2\x06\x02\x08\x05'
p185
sbsS'use_mean'
p186
I01
sS'job_dir'
p187
S'/home/nvidia/digits-2.2/digits/jobs/20151111-045327-bcce'
p188
sS'receiving_val_output'
p189
I00
sS'parents'
p190
NsS'progress'
p191
F0.09167861959709704
sS'crop_size'
p192
I224
sS'receiving_train_output'
p193
I00
sS'val_interval'
p194
F1.0
sS'current_epoch'
p195
F3.2087516858983967
sS'random_seed'
p196
I7
sS'saving_snapshot'
p197
I00
sS'pickver_task_caffe_train'
p198
I3
sg92
F5.7e-05
sS'loaded_snapshot_file'
p199
NsS'batch_size'
p200
NsS'pickver_task_train'
p201
I2
sS'pickver_task'
p202
I1
sS'lr_policy'
p203
(dp204
S'policy'
p205
Vstep
p206
sS'stepsize'
p207
F21.0
sS'gamma'
p208
F0.57
ssS'job_id'
p209
S'20151111-045327-bcce'
p210
sg7
NsS'current_resources'
p211
(dp212
S'gpus'
p213
(lp214
(S'2'
p215
I1
tp216
a(S'3'
p217
I1
tp218
assS'selected_gpus'
p219
(lp220
g215
ag217
asS'solver'
p221
ccaffe.proto.caffe_pb2
SolverParameter
p222
(tRp223
(dp224
g184
S'\x18\xd0\x0f \xa2h-I\x13o8058\xa6\xc1\x1cB\x04stepM\x85\xeb\x11?]fff?eo\x12\x03:h\xae\xfe\x05p\xa2hz\x08snapshot\x88\x01\x01\xa0\x01\x07\xc2\x01\x12train_val.prototxt\xf0\x01\x00'
p225
sbsS'snapshot_prefix'
p226
S'snapshot'
p227
sS'traceback'
p228
NsS'framework_id'
p229
S'caffe'
p230
sS'status_history'
p231
(lp232
((idigits.status
Status
p233
S'I'
p235
bF1447239207.327983
tp236
a((idigits.status
Status
p237
S'R'
p238
bF1447239208.644584
tp239
asS'last_train_update'
p240
F1447347667.644389
sS'train_val_file'
p241
S'train_val.prototxt'
p242
sS'image_mean'
p243
NsS'log_file'
p244
S'caffe_output.log'
p245
sS'solver_file'
p246
S'solver.prototxt'
p247
sS'solver_type'
p248
VSGD
p249
sbasS'_id'
p250
S'20151111-045327-bcce'
p251
sS'pickver_job_model_image_generic'
p252
I1
sS'_name'
p253
VILSVRC2015-sgd-digits2.0-mean-cont'd-3-1
p254
sS'pickver_job'
p255
I1
sg191
I0
sS'dataset_id'
p256
S'20151031-024147-bcd6'
p257
sS'pickver_job_dataset'
p258
I1
sS'pickver_job_model_image'
p259
I1
sg231
(lp260
((idigits.status
Status
p261
g235
bF1447239207.279332
tp262
a((idigits.status
Status
p263
g238
bF1447239208.468164
tp264
asb.